ARM GAS  /tmp/ccBfS1LG.s 			page 1


   1              		.cpu cortex-m3
   2              		.eabi_attribute 20, 1
   3              		.eabi_attribute 21, 1
   4              		.eabi_attribute 23, 3
   5              		.eabi_attribute 24, 1
   6              		.eabi_attribute 25, 1
   7              		.eabi_attribute 26, 1
   8              		.eabi_attribute 30, 1
   9              		.eabi_attribute 34, 1
  10              		.eabi_attribute 18, 4
  11              		.file	"pyjamask.c"
  12              		.text
  13              	.Ltext0:
  14              		.cfi_sections	.debug_frame
  15              		.section	.text.get_cycle_count,"ax",%progbits
  16              		.align	1
  17              		.global	get_cycle_count
  18              		.arch armv7-m
  19              		.syntax unified
  20              		.thumb
  21              		.thumb_func
  22              		.fpu softvfp
  24              	get_cycle_count:
  25              	.LFB75:
  26              		.file 1 "ciphers/pyjamask.c"
   1:ciphers/pyjamask.c **** /* This code was generated by Usuba.
   2:ciphers/pyjamask.c ****    See https://github.com/DadaIsCrazy/usuba.
   3:ciphers/pyjamask.c ****    From the file "nist/pyjamask/usuba/ua/pyjamask_vslice.ua" (included below). */
   4:ciphers/pyjamask.c **** 
   5:ciphers/pyjamask.c **** #include <stdint.h>
   6:ciphers/pyjamask.c **** #include <time.h>
   7:ciphers/pyjamask.c **** #include "main.h"
   8:ciphers/pyjamask.c **** 
   9:ciphers/pyjamask.c **** /* Do NOT change the order of those define/include */
  10:ciphers/pyjamask.c **** 
  11:ciphers/pyjamask.c **** #ifndef BITS_PER_REG
  12:ciphers/pyjamask.c **** #define BITS_PER_REG 32
  13:ciphers/pyjamask.c **** #endif
  14:ciphers/pyjamask.c **** /* including the architecture specific .h */
  15:ciphers/pyjamask.c **** #include "STD.h"
  16:ciphers/pyjamask.c **** 
  17:ciphers/pyjamask.c **** /* auxiliary function for benchmarking */
  18:ciphers/pyjamask.c **** 
  19:ciphers/pyjamask.c **** unsigned long get_cycle_count()
  20:ciphers/pyjamask.c **** {
  27              		.loc 1 20 1 view -0
  28              		.cfi_startproc
  29              		@ args = 0, pretend = 0, frame = 0
  30              		@ frame_needed = 0, uses_anonymous_args = 0
  31              		@ link register save eliminated.
  21:ciphers/pyjamask.c ****    /* retrieve the CPU cycles using the Cortex-M DWT->CYCCNT register
  22:ciphers/pyjamask.c ****     * avaialable only starting from CM3
  23:ciphers/pyjamask.c ****     */
  24:ciphers/pyjamask.c **** 
  25:ciphers/pyjamask.c **** #if (__CORTEX_M >= 0x03U)
  26:ciphers/pyjamask.c ****     static int dwt_started = 0;
  32              		.loc 1 26 5 view .LVU1
ARM GAS  /tmp/ccBfS1LG.s 			page 2


  27:ciphers/pyjamask.c ****     if( dwt_started == 0 )
  33              		.loc 1 27 5 view .LVU2
  34              		.loc 1 27 21 is_stmt 0 view .LVU3
  35 0000 0B4B     		ldr	r3, .L3
  36 0002 1B68     		ldr	r3, [r3]
  37              		.loc 1 27 7 view .LVU4
  38 0004 83B9     		cbnz	r3, .L2
  28:ciphers/pyjamask.c ****     {
  29:ciphers/pyjamask.c ****       dwt_started = 1;
  39              		.loc 1 29 7 is_stmt 1 view .LVU5
  40              		.loc 1 29 19 is_stmt 0 view .LVU6
  41 0006 0A4B     		ldr	r3, .L3
  42 0008 0122     		movs	r2, #1
  43 000a 1A60     		str	r2, [r3]
  30:ciphers/pyjamask.c ****       /* Enable Tracing */
  31:ciphers/pyjamask.c ****         CoreDebug->DEMCR |= CoreDebug_DEMCR_TRCENA_Msk;
  44              		.loc 1 31 9 is_stmt 1 view .LVU7
  45              		.loc 1 31 26 is_stmt 0 view .LVU8
  46 000c 094A     		ldr	r2, .L3+4
  47 000e D2F8FC30 		ldr	r3, [r2, #252]
  48 0012 43F08073 		orr	r3, r3, #16777216
  49 0016 C2F8FC30 		str	r3, [r2, #252]
  32:ciphers/pyjamask.c **** #if (__CORTEX_M == 0x07U)
  33:ciphers/pyjamask.c ****         /* in Cortex M7, the trace needs to be unlocked
  34:ciphers/pyjamask.c ****          * via the DWT->LAR register with 0xC5ACCE55 value
  35:ciphers/pyjamask.c ****          */
  36:ciphers/pyjamask.c ****         DWT->LAR = 0xC5ACCE55;
  37:ciphers/pyjamask.c **** #endif
  38:ciphers/pyjamask.c ****         DWT->CTRL |= DWT_CTRL_CYCCNTENA_Msk;
  50              		.loc 1 38 9 is_stmt 1 view .LVU9
  51              		.loc 1 38 19 is_stmt 0 view .LVU10
  52 001a 074B     		ldr	r3, .L3+8
  53 001c 1A68     		ldr	r2, [r3]
  54 001e 42F00102 		orr	r2, r2, #1
  55 0022 1A60     		str	r2, [r3]
  39:ciphers/pyjamask.c **** 
  40:ciphers/pyjamask.c ****       /* Reset counter */
  41:ciphers/pyjamask.c ****       DWT->CYCCNT = 0;
  56              		.loc 1 41 7 is_stmt 1 view .LVU11
  57              		.loc 1 41 19 is_stmt 0 view .LVU12
  58 0024 0022     		movs	r2, #0
  59 0026 5A60     		str	r2, [r3, #4]
  60              	.L2:
  42:ciphers/pyjamask.c ****     }
  43:ciphers/pyjamask.c **** 
  44:ciphers/pyjamask.c ****     return (unsigned long)DWT->CYCCNT;
  61              		.loc 1 44 5 is_stmt 1 view .LVU13
  62              		.loc 1 44 12 is_stmt 0 view .LVU14
  63 0028 034B     		ldr	r3, .L3+8
  64 002a 5868     		ldr	r0, [r3, #4]
  45:ciphers/pyjamask.c **** #else
  46:ciphers/pyjamask.c ****     return 0;
  47:ciphers/pyjamask.c **** #endif
  48:ciphers/pyjamask.c **** }
  65              		.loc 1 48 1 view .LVU15
  66 002c 7047     		bx	lr
  67              	.L4:
ARM GAS  /tmp/ccBfS1LG.s 			page 3


  68 002e 00BF     		.align	2
  69              	.L3:
  70 0030 00000000 		.word	.LANCHOR0
  71 0034 00ED00E0 		.word	-536810240
  72 0038 001000E0 		.word	-536866816
  73              		.cfi_endproc
  74              	.LFE75:
  76              		.section	.text.SubBytes__V32,"ax",%progbits
  77              		.align	1
  78              		.global	SubBytes__V32
  79              		.syntax unified
  80              		.thumb
  81              		.thumb_func
  82              		.fpu softvfp
  84              	SubBytes__V32:
  85              	.LVL0:
  86              	.LFB76:
  49:ciphers/pyjamask.c **** 
  50:ciphers/pyjamask.c **** 
  51:ciphers/pyjamask.c **** /* auxiliary functions */
  52:ciphers/pyjamask.c **** void SubBytes__V32 (/*inputs*/ DATATYPE s0,DATATYPE s1,DATATYPE s2,DATATYPE s3, /*outputs*/ DATATYP
  87              		.loc 1 52 110 is_stmt 1 view -0
  88              		.cfi_startproc
  89              		@ args = 4, pretend = 0, frame = 0
  90              		@ frame_needed = 0, uses_anonymous_args = 0
  91              		@ link register save eliminated.
  92              		.loc 1 52 110 is_stmt 0 view .LVU17
  93 0000 10B4     		push	{r4}
  94              	.LCFI0:
  95              		.cfi_def_cfa_offset 4
  96              		.cfi_offset 4, -4
  97 0002 019C     		ldr	r4, [sp, #4]
  53:ciphers/pyjamask.c **** 
  54:ciphers/pyjamask.c ****   // Variables declaration
  55:ciphers/pyjamask.c ****   DATATYPE _shadow_s01_;
  98              		.loc 1 55 3 is_stmt 1 view .LVU18
  56:ciphers/pyjamask.c ****   DATATYPE _shadow_s03_;
  99              		.loc 1 56 3 view .LVU19
  57:ciphers/pyjamask.c ****   DATATYPE _shadow_s14_;
 100              		.loc 1 57 3 view .LVU20
  58:ciphers/pyjamask.c ****   DATATYPE _shadow_s17_;
 101              		.loc 1 58 3 view .LVU21
  59:ciphers/pyjamask.c ****   DATATYPE _shadow_s25_;
 102              		.loc 1 59 3 view .LVU22
  60:ciphers/pyjamask.c ****   DATATYPE _shadow_s26_;
 103              		.loc 1 60 3 view .LVU23
  61:ciphers/pyjamask.c ****   DATATYPE _shadow_s32_;
 104              		.loc 1 61 3 view .LVU24
  62:ciphers/pyjamask.c ****   DATATYPE _shadow_s38_;
 105              		.loc 1 62 3 view .LVU25
  63:ciphers/pyjamask.c ****   DATATYPE _tmp1_;
 106              		.loc 1 63 3 view .LVU26
  64:ciphers/pyjamask.c ****   DATATYPE _tmp2_;
 107              		.loc 1 64 3 view .LVU27
  65:ciphers/pyjamask.c ****   DATATYPE _tmp3_;
 108              		.loc 1 65 3 view .LVU28
  66:ciphers/pyjamask.c ****   DATATYPE _tmp4_;
ARM GAS  /tmp/ccBfS1LG.s 			page 4


 109              		.loc 1 66 3 view .LVU29
  67:ciphers/pyjamask.c **** 
  68:ciphers/pyjamask.c ****   // Instructions (body)
  69:ciphers/pyjamask.c ****   _shadow_s01_ = XOR(s0,s3);
 110              		.loc 1 69 3 view .LVU30
 111              		.loc 1 69 16 is_stmt 0 view .LVU31
 112 0004 5840     		eors	r0, r0, r3
 113              	.LVL1:
  70:ciphers/pyjamask.c ****   _tmp1_ = AND(_shadow_s01_,s1);
 114              		.loc 1 70 3 is_stmt 1 view .LVU32
 115              		.loc 1 70 10 is_stmt 0 view .LVU33
 116 0006 00EA010C 		and	ip, r0, r1
 117              	.LVL2:
  71:ciphers/pyjamask.c ****   _shadow_s32_ = XOR(s3,_tmp1_);
 118              		.loc 1 71 3 is_stmt 1 view .LVU34
 119              		.loc 1 71 16 is_stmt 0 view .LVU35
 120 000a 83EA0C03 		eor	r3, r3, ip
 121              	.LVL3:
  72:ciphers/pyjamask.c ****   _tmp2_ = AND(s1,s2);
 122              		.loc 1 72 3 is_stmt 1 view .LVU36
 123              		.loc 1 72 10 is_stmt 0 view .LVU37
 124 000e 01EA020C 		and	ip, r1, r2
 125              	.LVL4:
  73:ciphers/pyjamask.c ****   _shadow_s03_ = XOR(_shadow_s01_,_tmp2_);
 126              		.loc 1 73 3 is_stmt 1 view .LVU38
 127              		.loc 1 73 16 is_stmt 0 view .LVU39
 128 0012 80EA0C00 		eor	r0, r0, ip
 129              	.LVL5:
  74:ciphers/pyjamask.c ****   _tmp3_ = AND(s2,_shadow_s32_);
 130              		.loc 1 74 3 is_stmt 1 view .LVU40
 131              		.loc 1 74 10 is_stmt 0 view .LVU41
 132 0016 03EA020C 		and	ip, r3, r2
 133              	.LVL6:
  75:ciphers/pyjamask.c ****   _shadow_s14_ = XOR(s1,_tmp3_);
 134              		.loc 1 75 3 is_stmt 1 view .LVU42
 135              		.loc 1 75 16 is_stmt 0 view .LVU43
 136 001a 81EA0C01 		eor	r1, r1, ip
 137              	.LVL7:
  76:ciphers/pyjamask.c ****   _tmp4_ = AND(_shadow_s03_,_shadow_s32_);
 138              		.loc 1 76 3 is_stmt 1 view .LVU44
 139              		.loc 1 76 10 is_stmt 0 view .LVU45
 140 001e 03EA000C 		and	ip, r3, r0
 141              	.LVL8:
  77:ciphers/pyjamask.c ****   _shadow_s25_ = XOR(s2,_tmp4_);
 142              		.loc 1 77 3 is_stmt 1 view .LVU46
 143              		.loc 1 77 16 is_stmt 0 view .LVU47
 144 0022 82EA0C02 		eor	r2, r2, ip
 145              	.LVL9:
  78:ciphers/pyjamask.c ****   _shadow_s26_ = XOR(_shadow_s25_,_shadow_s14_);
 146              		.loc 1 78 3 is_stmt 1 view .LVU48
 147              		.loc 1 78 16 is_stmt 0 view .LVU49
 148 0026 4A40     		eors	r2, r2, r1
 149              	.LVL10:
  79:ciphers/pyjamask.c ****   _shadow_s17_ = XOR(_shadow_s14_,_shadow_s03_);
 150              		.loc 1 79 3 is_stmt 1 view .LVU50
 151              		.loc 1 79 16 is_stmt 0 view .LVU51
 152 0028 4140     		eors	r1, r1, r0
ARM GAS  /tmp/ccBfS1LG.s 			page 5


 153              	.LVL11:
  80:ciphers/pyjamask.c ****   _shadow_s38_ = NOT(_shadow_s32_);
 154              		.loc 1 80 3 is_stmt 1 view .LVU52
 155              		.loc 1 80 16 is_stmt 0 view .LVU53
 156 002a DB43     		mvns	r3, r3
 157              	.LVL12:
  81:ciphers/pyjamask.c ****   ret[0] = _shadow_s03_;
 158              		.loc 1 81 3 is_stmt 1 view .LVU54
 159              		.loc 1 81 10 is_stmt 0 view .LVU55
 160 002c 2060     		str	r0, [r4]
  82:ciphers/pyjamask.c ****   ret[1] = _shadow_s17_;
 161              		.loc 1 82 3 is_stmt 1 view .LVU56
 162              		.loc 1 82 10 is_stmt 0 view .LVU57
 163 002e 6160     		str	r1, [r4, #4]
  83:ciphers/pyjamask.c ****   ret[2] = _shadow_s38_;
 164              		.loc 1 83 3 is_stmt 1 view .LVU58
 165              		.loc 1 83 10 is_stmt 0 view .LVU59
 166 0030 A360     		str	r3, [r4, #8]
  84:ciphers/pyjamask.c ****   ret[3] = _shadow_s26_;
 167              		.loc 1 84 3 is_stmt 1 view .LVU60
 168              		.loc 1 84 10 is_stmt 0 view .LVU61
 169 0032 E260     		str	r2, [r4, #12]
  85:ciphers/pyjamask.c **** 
  86:ciphers/pyjamask.c **** }
 170              		.loc 1 86 1 view .LVU62
 171 0034 10BC     		pop	{r4}
 172              	.LCFI1:
 173              		.cfi_restore 4
 174              		.cfi_def_cfa_offset 0
 175              	.LVL13:
 176              		.loc 1 86 1 view .LVU63
 177 0036 7047     		bx	lr
 178              		.cfi_endproc
 179              	.LFE76:
 181              		.section	.text.AddRoundKey__V32,"ax",%progbits
 182              		.align	1
 183              		.global	AddRoundKey__V32
 184              		.syntax unified
 185              		.thumb
 186              		.thumb_func
 187              		.fpu softvfp
 189              	AddRoundKey__V32:
 190              	.LVL14:
 191              	.LFB77:
  87:ciphers/pyjamask.c **** 
  88:ciphers/pyjamask.c **** void AddRoundKey__V32 (/*inputs*/ DATATYPE i__[4],DATATYPE k__[4], /*outputs*/ DATATYPE o__[4]) {
 192              		.loc 1 88 97 is_stmt 1 view -0
 193              		.cfi_startproc
 194              		@ args = 0, pretend = 0, frame = 0
 195              		@ frame_needed = 0, uses_anonymous_args = 0
 196              		@ link register save eliminated.
 197              		.loc 1 88 97 is_stmt 0 view .LVU65
 198 0000 10B4     		push	{r4}
 199              	.LCFI2:
 200              		.cfi_def_cfa_offset 4
 201              		.cfi_offset 4, -4
  89:ciphers/pyjamask.c **** 
ARM GAS  /tmp/ccBfS1LG.s 			page 6


  90:ciphers/pyjamask.c ****   // Variables declaration
  91:ciphers/pyjamask.c ****   ;
 202              		.loc 1 91 3 is_stmt 1 view .LVU66
  92:ciphers/pyjamask.c **** 
  93:ciphers/pyjamask.c ****   // Instructions (body)
  94:ciphers/pyjamask.c ****   o__[0] = XOR(i__[0],k__[0]);
 203              		.loc 1 94 3 view .LVU67
 204              		.loc 1 94 12 is_stmt 0 view .LVU68
 205 0002 0368     		ldr	r3, [r0]
 206 0004 0C68     		ldr	r4, [r1]
 207 0006 6340     		eors	r3, r3, r4
 208              		.loc 1 94 10 view .LVU69
 209 0008 1360     		str	r3, [r2]
  95:ciphers/pyjamask.c ****   o__[1] = XOR(i__[1],k__[1]);
 210              		.loc 1 95 3 is_stmt 1 view .LVU70
 211              		.loc 1 95 12 is_stmt 0 view .LVU71
 212 000a 4368     		ldr	r3, [r0, #4]
 213 000c 4C68     		ldr	r4, [r1, #4]
 214 000e 6340     		eors	r3, r3, r4
 215              		.loc 1 95 10 view .LVU72
 216 0010 5360     		str	r3, [r2, #4]
  96:ciphers/pyjamask.c ****   o__[2] = XOR(i__[2],k__[2]);
 217              		.loc 1 96 3 is_stmt 1 view .LVU73
 218              		.loc 1 96 12 is_stmt 0 view .LVU74
 219 0012 8368     		ldr	r3, [r0, #8]
 220 0014 8C68     		ldr	r4, [r1, #8]
 221 0016 6340     		eors	r3, r3, r4
 222              		.loc 1 96 10 view .LVU75
 223 0018 9360     		str	r3, [r2, #8]
  97:ciphers/pyjamask.c ****   o__[3] = XOR(i__[3],k__[3]);
 224              		.loc 1 97 3 is_stmt 1 view .LVU76
 225              		.loc 1 97 12 is_stmt 0 view .LVU77
 226 001a C368     		ldr	r3, [r0, #12]
 227 001c C968     		ldr	r1, [r1, #12]
 228              	.LVL15:
 229              		.loc 1 97 12 view .LVU78
 230 001e 4B40     		eors	r3, r3, r1
 231              		.loc 1 97 10 view .LVU79
 232 0020 D360     		str	r3, [r2, #12]
  98:ciphers/pyjamask.c **** 
  99:ciphers/pyjamask.c **** }
 233              		.loc 1 99 1 view .LVU80
 234 0022 10BC     		pop	{r4}
 235              	.LCFI3:
 236              		.cfi_restore 4
 237              		.cfi_def_cfa_offset 0
 238 0024 7047     		bx	lr
 239              		.cfi_endproc
 240              	.LFE77:
 242              		.section	.text.mat_mult__V32,"ax",%progbits
 243              		.align	1
 244              		.global	mat_mult__V32
 245              		.syntax unified
 246              		.thumb
 247              		.thumb_func
 248              		.fpu softvfp
 250              	mat_mult__V32:
ARM GAS  /tmp/ccBfS1LG.s 			page 7


 251              	.LVL16:
 252              	.LFB78:
 100:ciphers/pyjamask.c **** 
 101:ciphers/pyjamask.c **** void mat_mult__V32 (/*inputs*/ DATATYPE col__,DATATYPE vec__, /*outputs*/ DATATYPE* res__) {
 253              		.loc 1 101 92 is_stmt 1 view -0
 254              		.cfi_startproc
 255              		@ args = 0, pretend = 0, frame = 0
 256              		@ frame_needed = 0, uses_anonymous_args = 0
 257              		.loc 1 101 92 is_stmt 0 view .LVU82
 258 0000 00B5     		push	{lr}
 259              	.LCFI4:
 260              		.cfi_def_cfa_offset 4
 261              		.cfi_offset 14, -4
 262 0002 9646     		mov	lr, r2
 102:ciphers/pyjamask.c **** 
 103:ciphers/pyjamask.c ****   // Variables declaration
 104:ciphers/pyjamask.c ****   DATATYPE _tmp5_;
 263              		.loc 1 104 3 is_stmt 1 view .LVU83
 105:ciphers/pyjamask.c ****   DATATYPE _tmp6_;
 264              		.loc 1 105 3 view .LVU84
 106:ciphers/pyjamask.c ****   DATATYPE mask__;
 265              		.loc 1 106 3 view .LVU85
 107:ciphers/pyjamask.c ****   DATATYPE mat_col__;
 266              		.loc 1 107 3 view .LVU86
 108:ciphers/pyjamask.c ****   DATATYPE res_tmp__;
 267              		.loc 1 108 3 view .LVU87
 109:ciphers/pyjamask.c **** 
 110:ciphers/pyjamask.c ****   // Instructions (body)
 111:ciphers/pyjamask.c ****   mat_col__ = col__;
 268              		.loc 1 111 3 view .LVU88
 269              	.LVL17:
 112:ciphers/pyjamask.c ****   res_tmp__ = LIFT_32(0);
 270              		.loc 1 112 3 view .LVU89
 113:ciphers/pyjamask.c ****   for (int i__ = 0; i__ <= 31; i__++) {
 271              		.loc 1 113 3 view .LVU90
 272              	.LBB2:
 273              		.loc 1 113 8 view .LVU91
 274              		.loc 1 113 12 is_stmt 0 view .LVU92
 275 0004 0023     		movs	r3, #0
 276              	.LBE2:
 112:ciphers/pyjamask.c ****   res_tmp__ = LIFT_32(0);
 277              		.loc 1 112 13 view .LVU93
 278 0006 1A46     		mov	r2, r3
 279              	.LVL18:
 280              	.LBB3:
 281              		.loc 1 113 3 view .LVU94
 282 0008 08E0     		b	.L10
 283              	.LVL19:
 284              	.L11:
 114:ciphers/pyjamask.c ****     _tmp5_ = L_SHIFT(vec__,i__,32);
 285              		.loc 1 114 5 is_stmt 1 discriminator 3 view .LVU95
 286              		.loc 1 114 12 is_stmt 0 discriminator 3 view .LVU96
 287 000a 01FA03FC 		lsl	ip, r1, r3
 288              	.LVL20:
 115:ciphers/pyjamask.c ****     mask__ = RA_SHIFT(_tmp5_,31,32);
 289              		.loc 1 115 5 is_stmt 1 discriminator 3 view .LVU97
 116:ciphers/pyjamask.c ****     _tmp6_ = AND(mask__,mat_col__);
ARM GAS  /tmp/ccBfS1LG.s 			page 8


 290              		.loc 1 116 5 discriminator 3 view .LVU98
 291              		.loc 1 116 12 is_stmt 0 discriminator 3 view .LVU99
 292 000e 00EAEC7C 		and	ip, r0, ip, asr #31
 293              	.LVL21:
 117:ciphers/pyjamask.c ****     res_tmp__ = XOR(res_tmp__,_tmp6_);
 294              		.loc 1 117 5 is_stmt 1 discriminator 3 view .LVU100
 295              		.loc 1 117 15 is_stmt 0 discriminator 3 view .LVU101
 296 0012 82EA0C02 		eor	r2, r2, ip
 297              	.LVL22:
 118:ciphers/pyjamask.c ****     mat_col__ = R_ROTATE(mat_col__,1,32);
 298              		.loc 1 118 5 is_stmt 1 discriminator 3 view .LVU102
 299              		.loc 1 118 15 is_stmt 0 discriminator 3 view .LVU103
 300 0016 4FEA7000 		ror	r0, r0, #1
 301              	.LVL23:
 113:ciphers/pyjamask.c ****     _tmp5_ = L_SHIFT(vec__,i__,32);
 302              		.loc 1 113 32 is_stmt 1 discriminator 3 view .LVU104
 113:ciphers/pyjamask.c ****     _tmp5_ = L_SHIFT(vec__,i__,32);
 303              		.loc 1 113 35 is_stmt 0 discriminator 3 view .LVU105
 304 001a 0133     		adds	r3, r3, #1
 305              	.LVL24:
 306              	.L10:
 113:ciphers/pyjamask.c ****     _tmp5_ = L_SHIFT(vec__,i__,32);
 307              		.loc 1 113 21 is_stmt 1 discriminator 1 view .LVU106
 113:ciphers/pyjamask.c ****     _tmp5_ = L_SHIFT(vec__,i__,32);
 308              		.loc 1 113 3 is_stmt 0 discriminator 1 view .LVU107
 309 001c 1F2B     		cmp	r3, #31
 310 001e F4DD     		ble	.L11
 113:ciphers/pyjamask.c ****     _tmp5_ = L_SHIFT(vec__,i__,32);
 311              		.loc 1 113 3 discriminator 1 view .LVU108
 312              	.LBE3:
 119:ciphers/pyjamask.c ****   }
 120:ciphers/pyjamask.c ****   *res__ = res_tmp__;
 313              		.loc 1 120 3 is_stmt 1 view .LVU109
 314              		.loc 1 120 10 is_stmt 0 view .LVU110
 315 0020 CEF80020 		str	r2, [lr]
 121:ciphers/pyjamask.c **** 
 122:ciphers/pyjamask.c **** }
 316              		.loc 1 122 1 view .LVU111
 317 0024 5DF804FB 		ldr	pc, [sp], #4
 318              		.cfi_endproc
 319              	.LFE78:
 321              		.global	__popcountsi2
 322              		.section	.text.mat_mult__V32_0,"ax",%progbits
 323              		.align	1
 324              		.global	mat_mult__V32_0
 325              		.syntax unified
 326              		.thumb
 327              		.thumb_func
 328              		.fpu softvfp
 330              	mat_mult__V32_0:
 331              	.LVL25:
 332              	.LFB79:
 123:ciphers/pyjamask.c **** 
 124:ciphers/pyjamask.c **** void mat_mult__V32_0 (/*inputs*/ DATATYPE vec__, /*outputs*/ DATATYPE* res__) {
 333              		.loc 1 124 79 is_stmt 1 view -0
 334              		.cfi_startproc
 335              		@ args = 0, pretend = 0, frame = 0
ARM GAS  /tmp/ccBfS1LG.s 			page 9


 336              		@ frame_needed = 0, uses_anonymous_args = 0
 337              		.loc 1 124 79 is_stmt 0 view .LVU113
 338 0000 2DE9F041 		push	{r4, r5, r6, r7, r8, lr}
 339              	.LCFI5:
 340              		.cfi_def_cfa_offset 24
 341              		.cfi_offset 4, -24
 342              		.cfi_offset 5, -20
 343              		.cfi_offset 6, -16
 344              		.cfi_offset 7, -12
 345              		.cfi_offset 8, -8
 346              		.cfi_offset 14, -4
 347 0004 0746     		mov	r7, r0
 348 0006 8846     		mov	r8, r1
 125:ciphers/pyjamask.c **** 
 126:ciphers/pyjamask.c **** 	// Variables declaration
 127:ciphers/pyjamask.c **** 	DATATYPE mat_col__;
 349              		.loc 1 127 2 is_stmt 1 view .LVU114
 128:ciphers/pyjamask.c **** 	DATATYPE res_tmp__;
 350              		.loc 1 128 2 view .LVU115
 129:ciphers/pyjamask.c **** 	DATATYPE _tmp7_;
 351              		.loc 1 129 2 view .LVU116
 130:ciphers/pyjamask.c **** 	DATATYPE _tmp_col_;
 352              		.loc 1 130 2 view .LVU117
 131:ciphers/pyjamask.c **** 	
 132:ciphers/pyjamask.c **** 	//Instructions (body)
 133:ciphers/pyjamask.c **** 	mat_col__ = LIFT_32(2743472261);
 353              		.loc 1 133 2 view .LVU118
 354              	.LVL26:
 134:ciphers/pyjamask.c **** 	res_tmp__ = LIFT_32(0);
 355              		.loc 1 134 2 view .LVU119
 135:ciphers/pyjamask.c **** 	_tmp_col_ = L_ROTATE(mat_col__,31,32);
 356              		.loc 1 135 2 view .LVU120
 136:ciphers/pyjamask.c **** 	for(int i__ = 0; i__ < 32; i__ ++) {
 357              		.loc 1 136 2 view .LVU121
 358              	.LBB4:
 359              		.loc 1 136 6 view .LVU122
 360              		.loc 1 136 10 is_stmt 0 view .LVU123
 361 0008 0024     		movs	r4, #0
 362              	.LBE4:
 135:ciphers/pyjamask.c **** 	_tmp_col_ = L_ROTATE(mat_col__,31,32);
 363              		.loc 1 135 12 view .LVU124
 364 000a 0A4D     		ldr	r5, .L17
 134:ciphers/pyjamask.c **** 	res_tmp__ = LIFT_32(0);
 365              		.loc 1 134 12 view .LVU125
 366 000c 2646     		mov	r6, r4
 367              	.LBB5:
 368              		.loc 1 136 2 view .LVU126
 369 000e 0AE0     		b	.L14
 370              	.LVL27:
 371              	.L15:
 137:ciphers/pyjamask.c **** 		_tmp7_ = AND(__builtin_popcount(_tmp_col_ * vec__), 1);
 372              		.loc 1 137 3 is_stmt 1 discriminator 3 view .LVU127
 373              		.loc 1 137 12 is_stmt 0 discriminator 3 view .LVU128
 374 0010 07FB05F0 		mul	r0, r7, r5
 375 0014 FFF7FEFF 		bl	__popcountsi2
 376              	.LVL28:
 377              		.loc 1 137 10 discriminator 3 view .LVU129
ARM GAS  /tmp/ccBfS1LG.s 			page 10


 378 0018 00F00103 		and	r3, r0, #1
 379              	.LVL29:
 138:ciphers/pyjamask.c **** 		res_tmp__ = ADD(L_SHIFT(_tmp7_,i__,32), res_tmp__, 32);
 380              		.loc 1 138 3 is_stmt 1 discriminator 3 view .LVU130
 381              		.loc 1 138 15 is_stmt 0 discriminator 3 view .LVU131
 382 001c A340     		lsls	r3, r3, r4
 383              	.LVL30:
 384              		.loc 1 138 13 discriminator 3 view .LVU132
 385 001e 1E44     		add	r6, r6, r3
 386              	.LVL31:
 139:ciphers/pyjamask.c **** 		_tmp_col_ = L_ROTATE(_tmp_col_,1,32);
 387              		.loc 1 139 3 is_stmt 1 discriminator 3 view .LVU133
 388              		.loc 1 139 13 is_stmt 0 discriminator 3 view .LVU134
 389 0020 4FEAF575 		ror	r5, r5, #31
 390              	.LVL32:
 136:ciphers/pyjamask.c **** 		_tmp7_ = AND(__builtin_popcount(_tmp_col_ * vec__), 1);
 391              		.loc 1 136 29 is_stmt 1 discriminator 3 view .LVU135
 136:ciphers/pyjamask.c **** 		_tmp7_ = AND(__builtin_popcount(_tmp_col_ * vec__), 1);
 392              		.loc 1 136 33 is_stmt 0 discriminator 3 view .LVU136
 393 0024 0134     		adds	r4, r4, #1
 394              	.LVL33:
 395              	.L14:
 136:ciphers/pyjamask.c **** 		_tmp7_ = AND(__builtin_popcount(_tmp_col_ * vec__), 1);
 396              		.loc 1 136 19 is_stmt 1 discriminator 1 view .LVU137
 136:ciphers/pyjamask.c **** 		_tmp7_ = AND(__builtin_popcount(_tmp_col_ * vec__), 1);
 397              		.loc 1 136 2 is_stmt 0 discriminator 1 view .LVU138
 398 0026 1F2C     		cmp	r4, #31
 399 0028 F2DD     		ble	.L15
 400              	.LBE5:
 140:ciphers/pyjamask.c **** 	}
 141:ciphers/pyjamask.c **** 	*res__ = res_tmp__;
 401              		.loc 1 141 2 is_stmt 1 view .LVU139
 402              		.loc 1 141 9 is_stmt 0 view .LVU140
 403 002a C8F80060 		str	r6, [r8]
 142:ciphers/pyjamask.c **** }
 404              		.loc 1 142 1 view .LVU141
 405 002e BDE8F081 		pop	{r4, r5, r6, r7, r8, pc}
 406              	.LVL34:
 407              	.L18:
 408              		.loc 1 142 1 view .LVU142
 409 0032 00BF     		.align	2
 410              	.L17:
 411 0034 4208C3D1 		.word	-775747518
 412              		.cfi_endproc
 413              	.LFE79:
 415              		.section	.text.MixRows__V32,"ax",%progbits
 416              		.align	1
 417              		.global	MixRows__V32
 418              		.syntax unified
 419              		.thumb
 420              		.thumb_func
 421              		.fpu softvfp
 423              	MixRows__V32:
 424              	.LVL35:
 425              	.LFB80:
 143:ciphers/pyjamask.c **** 
 144:ciphers/pyjamask.c **** 
ARM GAS  /tmp/ccBfS1LG.s 			page 11


 145:ciphers/pyjamask.c **** 
 146:ciphers/pyjamask.c **** void MixRows__V32 (/*inputs*/ DATATYPE input__[4], /*outputs*/ DATATYPE output__[4]) {
 426              		.loc 1 146 86 is_stmt 1 view -0
 427              		.cfi_startproc
 428              		@ args = 0, pretend = 0, frame = 16
 429              		@ frame_needed = 0, uses_anonymous_args = 0
 430              		.loc 1 146 86 is_stmt 0 view .LVU144
 431 0000 70B5     		push	{r4, r5, r6, lr}
 432              	.LCFI6:
 433              		.cfi_def_cfa_offset 16
 434              		.cfi_offset 4, -16
 435              		.cfi_offset 5, -12
 436              		.cfi_offset 6, -8
 437              		.cfi_offset 14, -4
 438 0002 84B0     		sub	sp, sp, #16
 439              	.LCFI7:
 440              		.cfi_def_cfa_offset 32
 441 0004 0646     		mov	r6, r0
 442 0006 0D46     		mov	r5, r1
 147:ciphers/pyjamask.c **** 
 148:ciphers/pyjamask.c ****   // Variables declaration
 149:ciphers/pyjamask.c ****   DATATYPE M__[4];
 443              		.loc 1 149 3 is_stmt 1 view .LVU145
 150:ciphers/pyjamask.c **** 
 151:ciphers/pyjamask.c ****   // Instructions (body)
 152:ciphers/pyjamask.c ****   M__[0] = LIFT_32(2743472261);
 444              		.loc 1 152 3 view .LVU146
 445              		.loc 1 152 10 is_stmt 0 view .LVU147
 446 0008 0C4B     		ldr	r3, .L23
 447 000a 0093     		str	r3, [sp]
 153:ciphers/pyjamask.c ****   M__[1] = LIFT_32(1665232929);
 448              		.loc 1 153 3 is_stmt 1 view .LVU148
 449              		.loc 1 153 10 is_stmt 0 view .LVU149
 450 000c 0C4B     		ldr	r3, .L23+4
 451 000e 0193     		str	r3, [sp, #4]
 154:ciphers/pyjamask.c ****   M__[2] = LIFT_32(1764553344);
 452              		.loc 1 154 3 is_stmt 1 view .LVU150
 453              		.loc 1 154 10 is_stmt 0 view .LVU151
 454 0010 0C4B     		ldr	r3, .L23+8
 455 0012 0293     		str	r3, [sp, #8]
 155:ciphers/pyjamask.c ****   M__[3] = LIFT_32(1218791443);
 456              		.loc 1 155 3 is_stmt 1 view .LVU152
 457              		.loc 1 155 10 is_stmt 0 view .LVU153
 458 0014 0C4B     		ldr	r3, .L23+12
 459 0016 0393     		str	r3, [sp, #12]
 156:ciphers/pyjamask.c ****   for (int i__ = 0; i__ <= 3; i__++) {
 460              		.loc 1 156 3 is_stmt 1 view .LVU154
 461              	.LBB6:
 462              		.loc 1 156 8 view .LVU155
 463              	.LVL36:
 464              		.loc 1 156 12 is_stmt 0 view .LVU156
 465 0018 0024     		movs	r4, #0
 466              		.loc 1 156 3 view .LVU157
 467 001a 0BE0     		b	.L20
 468              	.LVL37:
 469              	.L21:
 157:ciphers/pyjamask.c ****     mat_mult__V32(M__[i__],input__[i__],&output__[i__]);
ARM GAS  /tmp/ccBfS1LG.s 			page 12


 470              		.loc 1 157 5 is_stmt 1 discriminator 3 view .LVU158
 471 001c 04AB     		add	r3, sp, #16
 472 001e 03EB8403 		add	r3, r3, r4, lsl #2
 473 0022 05EB8402 		add	r2, r5, r4, lsl #2
 474 0026 56F82410 		ldr	r1, [r6, r4, lsl #2]
 475 002a 53F8100C 		ldr	r0, [r3, #-16]
 476 002e FFF7FEFF 		bl	mat_mult__V32
 477              	.LVL38:
 156:ciphers/pyjamask.c ****   for (int i__ = 0; i__ <= 3; i__++) {
 478              		.loc 1 156 31 discriminator 3 view .LVU159
 156:ciphers/pyjamask.c ****   for (int i__ = 0; i__ <= 3; i__++) {
 479              		.loc 1 156 34 is_stmt 0 discriminator 3 view .LVU160
 480 0032 0134     		adds	r4, r4, #1
 481              	.LVL39:
 482              	.L20:
 156:ciphers/pyjamask.c ****   for (int i__ = 0; i__ <= 3; i__++) {
 483              		.loc 1 156 21 is_stmt 1 discriminator 1 view .LVU161
 156:ciphers/pyjamask.c ****   for (int i__ = 0; i__ <= 3; i__++) {
 484              		.loc 1 156 3 is_stmt 0 discriminator 1 view .LVU162
 485 0034 032C     		cmp	r4, #3
 486 0036 F1DD     		ble	.L21
 487              	.LBE6:
 158:ciphers/pyjamask.c ****   }
 159:ciphers/pyjamask.c **** }
 488              		.loc 1 159 1 view .LVU163
 489 0038 04B0     		add	sp, sp, #16
 490              	.LCFI8:
 491              		.cfi_def_cfa_offset 16
 492              		@ sp needed
 493 003a 70BD     		pop	{r4, r5, r6, pc}
 494              	.LVL40:
 495              	.L24:
 496              		.loc 1 159 1 view .LVU164
 497              		.align	2
 498              	.L23:
 499 003c 851086A3 		.word	-1551495035
 500 0040 21704163 		.word	1665232929
 501 0044 80F22C69 		.word	1764553344
 502 0048 1348A548 		.word	1218791443
 503              		.cfi_endproc
 504              	.LFE80:
 506              		.section	.text.MixRows__V32_4,"ax",%progbits
 507              		.align	1
 508              		.global	MixRows__V32_4
 509              		.syntax unified
 510              		.thumb
 511              		.thumb_func
 512              		.fpu softvfp
 514              	MixRows__V32_4:
 515              	.LVL41:
 516              	.LFB81:
 160:ciphers/pyjamask.c **** 
 161:ciphers/pyjamask.c **** void MixRows__V32_4 (/*inputs*/ DATATYPE input__[4], DATATYPE bench__[4], /*outputs*/ DATATYPE outp
 517              		.loc 1 161 109 is_stmt 1 view -0
 518              		.cfi_startproc
 519              		@ args = 0, pretend = 0, frame = 16
 520              		@ frame_needed = 0, uses_anonymous_args = 0
ARM GAS  /tmp/ccBfS1LG.s 			page 13


 521              		.loc 1 161 109 is_stmt 0 view .LVU166
 522 0000 2DE9F041 		push	{r4, r5, r6, r7, r8, lr}
 523              	.LCFI9:
 524              		.cfi_def_cfa_offset 24
 525              		.cfi_offset 4, -24
 526              		.cfi_offset 5, -20
 527              		.cfi_offset 6, -16
 528              		.cfi_offset 7, -12
 529              		.cfi_offset 8, -8
 530              		.cfi_offset 14, -4
 531 0004 84B0     		sub	sp, sp, #16
 532              	.LCFI10:
 533              		.cfi_def_cfa_offset 40
 534 0006 0646     		mov	r6, r0
 535 0008 0F46     		mov	r7, r1
 536 000a 1546     		mov	r5, r2
 162:ciphers/pyjamask.c **** 
 163:ciphers/pyjamask.c ****   // Variables declaration
 164:ciphers/pyjamask.c ****   DATATYPE M__[4];
 537              		.loc 1 164 3 is_stmt 1 view .LVU167
 165:ciphers/pyjamask.c ****   
 166:ciphers/pyjamask.c ****   // Variables benchmark
 167:ciphers/pyjamask.c ****   uint32_t start, end;
 538              		.loc 1 167 3 view .LVU168
 168:ciphers/pyjamask.c **** 
 169:ciphers/pyjamask.c ****   // Instructions (body)
 170:ciphers/pyjamask.c ****   M__[0] = LIFT_32(2743472261);
 539              		.loc 1 170 3 view .LVU169
 540              		.loc 1 170 10 is_stmt 0 view .LVU170
 541 000c 124B     		ldr	r3, .L29
 542 000e 0093     		str	r3, [sp]
 171:ciphers/pyjamask.c ****   M__[1] = LIFT_32(1665232929);
 543              		.loc 1 171 3 is_stmt 1 view .LVU171
 544              		.loc 1 171 10 is_stmt 0 view .LVU172
 545 0010 124B     		ldr	r3, .L29+4
 546 0012 0193     		str	r3, [sp, #4]
 172:ciphers/pyjamask.c ****   M__[2] = LIFT_32(1764553344);
 547              		.loc 1 172 3 is_stmt 1 view .LVU173
 548              		.loc 1 172 10 is_stmt 0 view .LVU174
 549 0014 124B     		ldr	r3, .L29+8
 550 0016 0293     		str	r3, [sp, #8]
 173:ciphers/pyjamask.c ****   M__[3] = LIFT_32(1218791443);
 551              		.loc 1 173 3 is_stmt 1 view .LVU175
 552              		.loc 1 173 10 is_stmt 0 view .LVU176
 553 0018 124B     		ldr	r3, .L29+12
 554 001a 0393     		str	r3, [sp, #12]
 174:ciphers/pyjamask.c ****   start = get_cycle_count();
 555              		.loc 1 174 3 is_stmt 1 view .LVU177
 556              		.loc 1 174 11 is_stmt 0 view .LVU178
 557 001c FFF7FEFF 		bl	get_cycle_count
 558              	.LVL42:
 559              		.loc 1 174 11 view .LVU179
 560 0020 8046     		mov	r8, r0
 561              	.LVL43:
 175:ciphers/pyjamask.c ****   for (int i__ = 0; i__ <= 3; i__++) {
 562              		.loc 1 175 3 is_stmt 1 view .LVU180
 563              	.LBB7:
ARM GAS  /tmp/ccBfS1LG.s 			page 14


 564              		.loc 1 175 8 view .LVU181
 565              		.loc 1 175 12 is_stmt 0 view .LVU182
 566 0022 0024     		movs	r4, #0
 567              		.loc 1 175 3 view .LVU183
 568 0024 0BE0     		b	.L26
 569              	.LVL44:
 570              	.L27:
 176:ciphers/pyjamask.c ****     mat_mult__V32(M__[i__],input__[i__],&output__[i__]);
 571              		.loc 1 176 5 is_stmt 1 discriminator 3 view .LVU184
 572 0026 04AB     		add	r3, sp, #16
 573 0028 03EB8403 		add	r3, r3, r4, lsl #2
 574 002c 05EB8402 		add	r2, r5, r4, lsl #2
 575 0030 56F82410 		ldr	r1, [r6, r4, lsl #2]
 576 0034 53F8100C 		ldr	r0, [r3, #-16]
 577 0038 FFF7FEFF 		bl	mat_mult__V32
 578              	.LVL45:
 175:ciphers/pyjamask.c ****   for (int i__ = 0; i__ <= 3; i__++) {
 579              		.loc 1 175 31 discriminator 3 view .LVU185
 175:ciphers/pyjamask.c ****   for (int i__ = 0; i__ <= 3; i__++) {
 580              		.loc 1 175 34 is_stmt 0 discriminator 3 view .LVU186
 581 003c 0134     		adds	r4, r4, #1
 582              	.LVL46:
 583              	.L26:
 175:ciphers/pyjamask.c ****   for (int i__ = 0; i__ <= 3; i__++) {
 584              		.loc 1 175 21 is_stmt 1 discriminator 1 view .LVU187
 175:ciphers/pyjamask.c ****   for (int i__ = 0; i__ <= 3; i__++) {
 585              		.loc 1 175 3 is_stmt 0 discriminator 1 view .LVU188
 586 003e 032C     		cmp	r4, #3
 587 0040 F1DD     		ble	.L27
 588              	.LBE7:
 177:ciphers/pyjamask.c ****   }
 178:ciphers/pyjamask.c ****   end = get_cycle_count() - start;
 589              		.loc 1 178 3 is_stmt 1 view .LVU189
 590              		.loc 1 178 9 is_stmt 0 view .LVU190
 591 0042 FFF7FEFF 		bl	get_cycle_count
 592              	.LVL47:
 593              		.loc 1 178 7 view .LVU191
 594 0046 A0EB0800 		sub	r0, r0, r8
 595              	.LVL48:
 179:ciphers/pyjamask.c ****   bench__[3] += end;
 596              		.loc 1 179 3 is_stmt 1 view .LVU192
 597              		.loc 1 179 14 is_stmt 0 view .LVU193
 598 004a FB68     		ldr	r3, [r7, #12]
 599 004c 0344     		add	r3, r3, r0
 600 004e FB60     		str	r3, [r7, #12]
 180:ciphers/pyjamask.c **** }
 601              		.loc 1 180 1 view .LVU194
 602 0050 04B0     		add	sp, sp, #16
 603              	.LCFI11:
 604              		.cfi_def_cfa_offset 24
 605              		@ sp needed
 606 0052 BDE8F081 		pop	{r4, r5, r6, r7, r8, pc}
 607              	.LVL49:
 608              	.L30:
 609              		.loc 1 180 1 view .LVU195
 610 0056 00BF     		.align	2
 611              	.L29:
ARM GAS  /tmp/ccBfS1LG.s 			page 15


 612 0058 851086A3 		.word	-1551495035
 613 005c 21704163 		.word	1665232929
 614 0060 80F22C69 		.word	1764553344
 615 0064 1348A548 		.word	1218791443
 616              		.cfi_endproc
 617              	.LFE81:
 619              		.section	.text.pyjamask__1,"ax",%progbits
 620              		.align	1
 621              		.global	pyjamask__1
 622              		.syntax unified
 623              		.thumb
 624              		.thumb_func
 625              		.fpu softvfp
 627              	pyjamask__1:
 628              	.LVL50:
 629              	.LFB82:
 181:ciphers/pyjamask.c **** 
 182:ciphers/pyjamask.c **** 
 183:ciphers/pyjamask.c **** 
 184:ciphers/pyjamask.c **** 
 185:ciphers/pyjamask.c **** /* main function */
 186:ciphers/pyjamask.c **** void pyjamask__1 (/*inputs*/ DATATYPE plaintext__[4],DATATYPE key__[15][4], DATATYPE bench__[4], /*
 630              		.loc 1 186 136 is_stmt 1 view -0
 631              		.cfi_startproc
 632              		@ args = 0, pretend = 0, frame = 48
 633              		@ frame_needed = 0, uses_anonymous_args = 0
 634              		.loc 1 186 136 is_stmt 0 view .LVU197
 635 0000 2DE9F043 		push	{r4, r5, r6, r7, r8, r9, lr}
 636              	.LCFI12:
 637              		.cfi_def_cfa_offset 28
 638              		.cfi_offset 4, -28
 639              		.cfi_offset 5, -24
 640              		.cfi_offset 6, -20
 641              		.cfi_offset 7, -16
 642              		.cfi_offset 8, -12
 643              		.cfi_offset 9, -8
 644              		.cfi_offset 14, -4
 645 0004 8FB0     		sub	sp, sp, #60
 646              	.LCFI13:
 647              		.cfi_def_cfa_offset 88
 648 0006 0E46     		mov	r6, r1
 649 0008 1446     		mov	r4, r2
 650 000a 9946     		mov	r9, r3
 187:ciphers/pyjamask.c **** 
 188:ciphers/pyjamask.c ****   // Variables declaration
 189:ciphers/pyjamask.c ****   DATATYPE _tmp11_[4];
 651              		.loc 1 189 3 is_stmt 1 view .LVU198
 190:ciphers/pyjamask.c ****   DATATYPE _tmp12_[4];
 652              		.loc 1 190 3 view .LVU199
 191:ciphers/pyjamask.c ****   DATATYPE round__[4];
 653              		.loc 1 191 3 view .LVU200
 192:ciphers/pyjamask.c **** 
 193:ciphers/pyjamask.c ****   // Variables for benchmarking
 194:ciphers/pyjamask.c ****   uint32_t start,end;
 654              		.loc 1 194 3 view .LVU201
 195:ciphers/pyjamask.c **** 
 196:ciphers/pyjamask.c ****   // Instructions (body)
ARM GAS  /tmp/ccBfS1LG.s 			page 16


 197:ciphers/pyjamask.c ****   round__[0] = plaintext__[0];
 655              		.loc 1 197 3 view .LVU202
 656              		.loc 1 197 27 is_stmt 0 view .LVU203
 657 000c 0368     		ldr	r3, [r0]
 658              	.LVL51:
 659              		.loc 1 197 14 view .LVU204
 660 000e 0293     		str	r3, [sp, #8]
 198:ciphers/pyjamask.c ****   round__[1] = plaintext__[1];
 661              		.loc 1 198 3 is_stmt 1 view .LVU205
 662              		.loc 1 198 14 is_stmt 0 view .LVU206
 663 0010 4368     		ldr	r3, [r0, #4]
 664 0012 0393     		str	r3, [sp, #12]
 199:ciphers/pyjamask.c ****   round__[2] = plaintext__[2];
 665              		.loc 1 199 3 is_stmt 1 view .LVU207
 666              		.loc 1 199 14 is_stmt 0 view .LVU208
 667 0014 8368     		ldr	r3, [r0, #8]
 668 0016 0493     		str	r3, [sp, #16]
 200:ciphers/pyjamask.c ****   round__[3] = plaintext__[3];
 669              		.loc 1 200 3 is_stmt 1 view .LVU209
 670              		.loc 1 200 14 is_stmt 0 view .LVU210
 671 0018 C368     		ldr	r3, [r0, #12]
 672 001a 0593     		str	r3, [sp, #20]
 201:ciphers/pyjamask.c ****   for (int i__ = 0; i__ <= 13; i__++) {
 673              		.loc 1 201 3 is_stmt 1 view .LVU211
 674              	.LBB8:
 675              		.loc 1 201 8 view .LVU212
 676              	.LVL52:
 677              		.loc 1 201 12 is_stmt 0 view .LVU213
 678 001c 0025     		movs	r5, #0
 679              		.loc 1 201 3 view .LVU214
 680 001e 30E0     		b	.L32
 681              	.LVL53:
 682              	.L33:
 202:ciphers/pyjamask.c ****     start = get_cycle_count();
 683              		.loc 1 202 5 is_stmt 1 discriminator 3 view .LVU215
 684              		.loc 1 202 13 is_stmt 0 discriminator 3 view .LVU216
 685 0020 FFF7FEFF 		bl	get_cycle_count
 686              	.LVL54:
 687 0024 8046     		mov	r8, r0
 688              	.LVL55:
 203:ciphers/pyjamask.c ****     AddRoundKey__V32(round__,key__[i__],_tmp11_);
 689              		.loc 1 203 5 is_stmt 1 discriminator 3 view .LVU217
 690 0026 0AAA     		add	r2, sp, #40
 691 0028 06EB0511 		add	r1, r6, r5, lsl #4
 692 002c 02A8     		add	r0, sp, #8
 693              	.LVL56:
 694              		.loc 1 203 5 is_stmt 0 discriminator 3 view .LVU218
 695 002e FFF7FEFF 		bl	AddRoundKey__V32
 696              	.LVL57:
 204:ciphers/pyjamask.c ****     end = get_cycle_count() - start;
 697              		.loc 1 204 5 is_stmt 1 discriminator 3 view .LVU219
 698              		.loc 1 204 11 is_stmt 0 discriminator 3 view .LVU220
 699 0032 FFF7FEFF 		bl	get_cycle_count
 700              	.LVL58:
 701              		.loc 1 204 9 discriminator 3 view .LVU221
 702 0036 A0EB0800 		sub	r0, r0, r8
 703              	.LVL59:
ARM GAS  /tmp/ccBfS1LG.s 			page 17


 205:ciphers/pyjamask.c ****     bench__[0] += end;
 704              		.loc 1 205 5 is_stmt 1 discriminator 3 view .LVU222
 705              		.loc 1 205 16 is_stmt 0 discriminator 3 view .LVU223
 706 003a 2368     		ldr	r3, [r4]
 707 003c 0344     		add	r3, r3, r0
 708 003e 2360     		str	r3, [r4]
 206:ciphers/pyjamask.c ****     start = get_cycle_count();
 709              		.loc 1 206 5 is_stmt 1 discriminator 3 view .LVU224
 710              		.loc 1 206 13 is_stmt 0 discriminator 3 view .LVU225
 711 0040 FFF7FEFF 		bl	get_cycle_count
 712              	.LVL60:
 713              		.loc 1 206 13 discriminator 3 view .LVU226
 714 0044 8046     		mov	r8, r0
 715              	.LVL61:
 207:ciphers/pyjamask.c ****     SubBytes__V32(_tmp11_[0],_tmp11_[1],_tmp11_[2],_tmp11_[3],_tmp12_);
 716              		.loc 1 207 5 is_stmt 1 discriminator 3 view .LVU227
 717 0046 06AF     		add	r7, sp, #24
 718 0048 0097     		str	r7, [sp]
 719 004a 0D9B     		ldr	r3, [sp, #52]
 720 004c 0C9A     		ldr	r2, [sp, #48]
 721 004e 0B99     		ldr	r1, [sp, #44]
 722 0050 0A98     		ldr	r0, [sp, #40]
 723              	.LVL62:
 724              		.loc 1 207 5 is_stmt 0 discriminator 3 view .LVU228
 725 0052 FFF7FEFF 		bl	SubBytes__V32
 726              	.LVL63:
 208:ciphers/pyjamask.c ****     end = get_cycle_count() - start;
 727              		.loc 1 208 5 is_stmt 1 discriminator 3 view .LVU229
 728              		.loc 1 208 11 is_stmt 0 discriminator 3 view .LVU230
 729 0056 FFF7FEFF 		bl	get_cycle_count
 730              	.LVL64:
 731              		.loc 1 208 9 discriminator 3 view .LVU231
 732 005a A0EB0800 		sub	r0, r0, r8
 733              	.LVL65:
 209:ciphers/pyjamask.c ****     bench__[1] += end;
 734              		.loc 1 209 5 is_stmt 1 discriminator 3 view .LVU232
 735              		.loc 1 209 16 is_stmt 0 discriminator 3 view .LVU233
 736 005e 6368     		ldr	r3, [r4, #4]
 737 0060 0344     		add	r3, r3, r0
 738 0062 6360     		str	r3, [r4, #4]
 210:ciphers/pyjamask.c ****     start = get_cycle_count();
 739              		.loc 1 210 5 is_stmt 1 discriminator 3 view .LVU234
 740              		.loc 1 210 13 is_stmt 0 discriminator 3 view .LVU235
 741 0064 FFF7FEFF 		bl	get_cycle_count
 742              	.LVL66:
 743              		.loc 1 210 13 discriminator 3 view .LVU236
 744 0068 8046     		mov	r8, r0
 745              	.LVL67:
 211:ciphers/pyjamask.c ****     MixRows__V32(_tmp12_, round__);
 746              		.loc 1 211 5 is_stmt 1 discriminator 3 view .LVU237
 747 006a 02A9     		add	r1, sp, #8
 748 006c 3846     		mov	r0, r7
 749              	.LVL68:
 750              		.loc 1 211 5 is_stmt 0 discriminator 3 view .LVU238
 751 006e FFF7FEFF 		bl	MixRows__V32
 752              	.LVL69:
 212:ciphers/pyjamask.c ****     end = get_cycle_count() - start;
ARM GAS  /tmp/ccBfS1LG.s 			page 18


 753              		.loc 1 212 5 is_stmt 1 discriminator 3 view .LVU239
 754              		.loc 1 212 11 is_stmt 0 discriminator 3 view .LVU240
 755 0072 FFF7FEFF 		bl	get_cycle_count
 756              	.LVL70:
 757              		.loc 1 212 9 discriminator 3 view .LVU241
 758 0076 A0EB0800 		sub	r0, r0, r8
 759              	.LVL71:
 213:ciphers/pyjamask.c ****     bench__[2] += end;
 760              		.loc 1 213 5 is_stmt 1 discriminator 3 view .LVU242
 761              		.loc 1 213 16 is_stmt 0 discriminator 3 view .LVU243
 762 007a A368     		ldr	r3, [r4, #8]
 763 007c 1844     		add	r0, r0, r3
 764              	.LVL72:
 765              		.loc 1 213 16 discriminator 3 view .LVU244
 766 007e A060     		str	r0, [r4, #8]
 201:ciphers/pyjamask.c ****     start = get_cycle_count();
 767              		.loc 1 201 32 is_stmt 1 discriminator 3 view .LVU245
 201:ciphers/pyjamask.c ****     start = get_cycle_count();
 768              		.loc 1 201 35 is_stmt 0 discriminator 3 view .LVU246
 769 0080 0135     		adds	r5, r5, #1
 770              	.LVL73:
 771              	.L32:
 201:ciphers/pyjamask.c ****     start = get_cycle_count();
 772              		.loc 1 201 21 is_stmt 1 discriminator 1 view .LVU247
 201:ciphers/pyjamask.c ****     start = get_cycle_count();
 773              		.loc 1 201 3 is_stmt 0 discriminator 1 view .LVU248
 774 0082 0D2D     		cmp	r5, #13
 775 0084 CCDD     		ble	.L33
 776              	.LBE8:
 214:ciphers/pyjamask.c ****   }
 215:ciphers/pyjamask.c ****   start = get_cycle_count();
 777              		.loc 1 215 3 is_stmt 1 view .LVU249
 778              		.loc 1 215 11 is_stmt 0 view .LVU250
 779 0086 FFF7FEFF 		bl	get_cycle_count
 780              	.LVL74:
 781 008a 0546     		mov	r5, r0
 782              	.LVL75:
 216:ciphers/pyjamask.c ****   AddRoundKey__V32(round__,key__[14],ciphertext__);
 783              		.loc 1 216 3 is_stmt 1 view .LVU251
 784 008c 4A46     		mov	r2, r9
 785 008e 06F1E001 		add	r1, r6, #224
 786 0092 02A8     		add	r0, sp, #8
 787              	.LVL76:
 788              		.loc 1 216 3 is_stmt 0 view .LVU252
 789 0094 FFF7FEFF 		bl	AddRoundKey__V32
 790              	.LVL77:
 217:ciphers/pyjamask.c ****   end = get_cycle_count() - start;
 791              		.loc 1 217 3 is_stmt 1 view .LVU253
 792              		.loc 1 217 9 is_stmt 0 view .LVU254
 793 0098 FFF7FEFF 		bl	get_cycle_count
 794              	.LVL78:
 795              		.loc 1 217 7 view .LVU255
 796 009c 401B     		subs	r0, r0, r5
 797              	.LVL79:
 218:ciphers/pyjamask.c ****   bench__[0] += end;
 798              		.loc 1 218 3 is_stmt 1 view .LVU256
 799              		.loc 1 218 14 is_stmt 0 view .LVU257
ARM GAS  /tmp/ccBfS1LG.s 			page 19


 800 009e 2368     		ldr	r3, [r4]
 801 00a0 0344     		add	r3, r3, r0
 802 00a2 2360     		str	r3, [r4]
 219:ciphers/pyjamask.c **** 
 220:ciphers/pyjamask.c **** }
 803              		.loc 1 220 1 view .LVU258
 804 00a4 0FB0     		add	sp, sp, #60
 805              	.LCFI14:
 806              		.cfi_def_cfa_offset 28
 807              		@ sp needed
 808 00a6 BDE8F083 		pop	{r4, r5, r6, r7, r8, r9, pc}
 809              		.loc 1 220 1 view .LVU259
 810              		.cfi_endproc
 811              	.LFE82:
 813              		.section	.text.pyjamask__2,"ax",%progbits
 814              		.align	1
 815              		.global	pyjamask__2
 816              		.syntax unified
 817              		.thumb
 818              		.thumb_func
 819              		.fpu softvfp
 821              	pyjamask__2:
 822              	.LVL80:
 823              	.LFB83:
 221:ciphers/pyjamask.c **** 
 222:ciphers/pyjamask.c **** void pyjamask__2 (/*inputs*/ DATATYPE plaintext__[4],DATATYPE key__[15][4], DATATYPE bench__[4], /*
 824              		.loc 1 222 136 is_stmt 1 view -0
 825              		.cfi_startproc
 826              		@ args = 0, pretend = 0, frame = 48
 827              		@ frame_needed = 0, uses_anonymous_args = 0
 828              		.loc 1 222 136 is_stmt 0 view .LVU261
 829 0000 2DE9F043 		push	{r4, r5, r6, r7, r8, r9, lr}
 830              	.LCFI15:
 831              		.cfi_def_cfa_offset 28
 832              		.cfi_offset 4, -28
 833              		.cfi_offset 5, -24
 834              		.cfi_offset 6, -20
 835              		.cfi_offset 7, -16
 836              		.cfi_offset 8, -12
 837              		.cfi_offset 9, -8
 838              		.cfi_offset 14, -4
 839 0004 8FB0     		sub	sp, sp, #60
 840              	.LCFI16:
 841              		.cfi_def_cfa_offset 88
 842 0006 0E46     		mov	r6, r1
 843 0008 1446     		mov	r4, r2
 844 000a 9946     		mov	r9, r3
 223:ciphers/pyjamask.c **** 
 224:ciphers/pyjamask.c ****   // Variables declaration
 225:ciphers/pyjamask.c ****   DATATYPE _tmp11_[4];
 845              		.loc 1 225 3 is_stmt 1 view .LVU262
 226:ciphers/pyjamask.c ****   DATATYPE _tmp12_[4];
 846              		.loc 1 226 3 view .LVU263
 227:ciphers/pyjamask.c ****   DATATYPE round__[4];
 847              		.loc 1 227 3 view .LVU264
 228:ciphers/pyjamask.c **** 
 229:ciphers/pyjamask.c ****   // Variables for benchmarking
ARM GAS  /tmp/ccBfS1LG.s 			page 20


 230:ciphers/pyjamask.c ****   uint32_t start,end;
 848              		.loc 1 230 3 view .LVU265
 231:ciphers/pyjamask.c **** 
 232:ciphers/pyjamask.c ****   // Instructions (body)
 233:ciphers/pyjamask.c ****   round__[0] = plaintext__[0];
 849              		.loc 1 233 3 view .LVU266
 850              		.loc 1 233 27 is_stmt 0 view .LVU267
 851 000c 0368     		ldr	r3, [r0]
 852              	.LVL81:
 853              		.loc 1 233 14 view .LVU268
 854 000e 0293     		str	r3, [sp, #8]
 234:ciphers/pyjamask.c ****   round__[1] = plaintext__[1];
 855              		.loc 1 234 3 is_stmt 1 view .LVU269
 856              		.loc 1 234 14 is_stmt 0 view .LVU270
 857 0010 4368     		ldr	r3, [r0, #4]
 858 0012 0393     		str	r3, [sp, #12]
 235:ciphers/pyjamask.c ****   round__[2] = plaintext__[2];
 859              		.loc 1 235 3 is_stmt 1 view .LVU271
 860              		.loc 1 235 14 is_stmt 0 view .LVU272
 861 0014 8368     		ldr	r3, [r0, #8]
 862 0016 0493     		str	r3, [sp, #16]
 236:ciphers/pyjamask.c ****   round__[3] = plaintext__[3];
 863              		.loc 1 236 3 is_stmt 1 view .LVU273
 864              		.loc 1 236 14 is_stmt 0 view .LVU274
 865 0018 C368     		ldr	r3, [r0, #12]
 866 001a 0593     		str	r3, [sp, #20]
 237:ciphers/pyjamask.c ****   for (int i__ = 0; i__ <= 13; i__++) {
 867              		.loc 1 237 3 is_stmt 1 view .LVU275
 868              	.LBB9:
 869              		.loc 1 237 8 view .LVU276
 870              	.LVL82:
 871              		.loc 1 237 12 is_stmt 0 view .LVU277
 872 001c 0025     		movs	r5, #0
 873              		.loc 1 237 3 view .LVU278
 874 001e 30E0     		b	.L36
 875              	.LVL83:
 876              	.L37:
 238:ciphers/pyjamask.c ****     start = get_cycle_count();
 877              		.loc 1 238 5 is_stmt 1 discriminator 3 view .LVU279
 878              		.loc 1 238 13 is_stmt 0 discriminator 3 view .LVU280
 879 0020 FFF7FEFF 		bl	get_cycle_count
 880              	.LVL84:
 881 0024 8046     		mov	r8, r0
 882              	.LVL85:
 239:ciphers/pyjamask.c ****     AddRoundKey__V32(round__,key__[i__],_tmp11_);
 883              		.loc 1 239 5 is_stmt 1 discriminator 3 view .LVU281
 884 0026 0AAA     		add	r2, sp, #40
 885 0028 06EB0511 		add	r1, r6, r5, lsl #4
 886 002c 02A8     		add	r0, sp, #8
 887              	.LVL86:
 888              		.loc 1 239 5 is_stmt 0 discriminator 3 view .LVU282
 889 002e FFF7FEFF 		bl	AddRoundKey__V32
 890              	.LVL87:
 240:ciphers/pyjamask.c ****     end = get_cycle_count() - start;
 891              		.loc 1 240 5 is_stmt 1 discriminator 3 view .LVU283
 892              		.loc 1 240 11 is_stmt 0 discriminator 3 view .LVU284
 893 0032 FFF7FEFF 		bl	get_cycle_count
ARM GAS  /tmp/ccBfS1LG.s 			page 21


 894              	.LVL88:
 895              		.loc 1 240 9 discriminator 3 view .LVU285
 896 0036 A0EB0800 		sub	r0, r0, r8
 897              	.LVL89:
 241:ciphers/pyjamask.c ****     bench__[0] += end;
 898              		.loc 1 241 5 is_stmt 1 discriminator 3 view .LVU286
 899              		.loc 1 241 16 is_stmt 0 discriminator 3 view .LVU287
 900 003a 2368     		ldr	r3, [r4]
 901 003c 0344     		add	r3, r3, r0
 902 003e 2360     		str	r3, [r4]
 242:ciphers/pyjamask.c ****     start = get_cycle_count();
 903              		.loc 1 242 5 is_stmt 1 discriminator 3 view .LVU288
 904              		.loc 1 242 13 is_stmt 0 discriminator 3 view .LVU289
 905 0040 FFF7FEFF 		bl	get_cycle_count
 906              	.LVL90:
 907              		.loc 1 242 13 discriminator 3 view .LVU290
 908 0044 8046     		mov	r8, r0
 909              	.LVL91:
 243:ciphers/pyjamask.c ****     SubBytes__V32(_tmp11_[0],_tmp11_[1],_tmp11_[2],_tmp11_[3],_tmp12_);
 910              		.loc 1 243 5 is_stmt 1 discriminator 3 view .LVU291
 911 0046 06AF     		add	r7, sp, #24
 912 0048 0097     		str	r7, [sp]
 913 004a 0D9B     		ldr	r3, [sp, #52]
 914 004c 0C9A     		ldr	r2, [sp, #48]
 915 004e 0B99     		ldr	r1, [sp, #44]
 916 0050 0A98     		ldr	r0, [sp, #40]
 917              	.LVL92:
 918              		.loc 1 243 5 is_stmt 0 discriminator 3 view .LVU292
 919 0052 FFF7FEFF 		bl	SubBytes__V32
 920              	.LVL93:
 244:ciphers/pyjamask.c ****     end = get_cycle_count() - start;
 921              		.loc 1 244 5 is_stmt 1 discriminator 3 view .LVU293
 922              		.loc 1 244 11 is_stmt 0 discriminator 3 view .LVU294
 923 0056 FFF7FEFF 		bl	get_cycle_count
 924              	.LVL94:
 925              		.loc 1 244 9 discriminator 3 view .LVU295
 926 005a A0EB0800 		sub	r0, r0, r8
 927              	.LVL95:
 245:ciphers/pyjamask.c ****     bench__[1] += end;
 928              		.loc 1 245 5 is_stmt 1 discriminator 3 view .LVU296
 929              		.loc 1 245 16 is_stmt 0 discriminator 3 view .LVU297
 930 005e 6368     		ldr	r3, [r4, #4]
 931 0060 0344     		add	r3, r3, r0
 932 0062 6360     		str	r3, [r4, #4]
 246:ciphers/pyjamask.c ****     start = get_cycle_count();
 933              		.loc 1 246 5 is_stmt 1 discriminator 3 view .LVU298
 934              		.loc 1 246 13 is_stmt 0 discriminator 3 view .LVU299
 935 0064 FFF7FEFF 		bl	get_cycle_count
 936              	.LVL96:
 937              		.loc 1 246 13 discriminator 3 view .LVU300
 938 0068 8046     		mov	r8, r0
 939              	.LVL97:
 247:ciphers/pyjamask.c ****     MixRows__V32(_tmp12_, round__);
 940              		.loc 1 247 5 is_stmt 1 discriminator 3 view .LVU301
 941 006a 02A9     		add	r1, sp, #8
 942 006c 3846     		mov	r0, r7
 943              	.LVL98:
ARM GAS  /tmp/ccBfS1LG.s 			page 22


 944              		.loc 1 247 5 is_stmt 0 discriminator 3 view .LVU302
 945 006e FFF7FEFF 		bl	MixRows__V32
 946              	.LVL99:
 248:ciphers/pyjamask.c ****     end = get_cycle_count() - start;
 947              		.loc 1 248 5 is_stmt 1 discriminator 3 view .LVU303
 948              		.loc 1 248 11 is_stmt 0 discriminator 3 view .LVU304
 949 0072 FFF7FEFF 		bl	get_cycle_count
 950              	.LVL100:
 951              		.loc 1 248 9 discriminator 3 view .LVU305
 952 0076 A0EB0800 		sub	r0, r0, r8
 953              	.LVL101:
 249:ciphers/pyjamask.c ****     bench__[2] += end;
 954              		.loc 1 249 5 is_stmt 1 discriminator 3 view .LVU306
 955              		.loc 1 249 16 is_stmt 0 discriminator 3 view .LVU307
 956 007a A368     		ldr	r3, [r4, #8]
 957 007c 1844     		add	r0, r0, r3
 958              	.LVL102:
 959              		.loc 1 249 16 discriminator 3 view .LVU308
 960 007e A060     		str	r0, [r4, #8]
 237:ciphers/pyjamask.c ****     start = get_cycle_count();
 961              		.loc 1 237 32 is_stmt 1 discriminator 3 view .LVU309
 237:ciphers/pyjamask.c ****     start = get_cycle_count();
 962              		.loc 1 237 35 is_stmt 0 discriminator 3 view .LVU310
 963 0080 0135     		adds	r5, r5, #1
 964              	.LVL103:
 965              	.L36:
 237:ciphers/pyjamask.c ****     start = get_cycle_count();
 966              		.loc 1 237 21 is_stmt 1 discriminator 1 view .LVU311
 237:ciphers/pyjamask.c ****     start = get_cycle_count();
 967              		.loc 1 237 3 is_stmt 0 discriminator 1 view .LVU312
 968 0082 0D2D     		cmp	r5, #13
 969 0084 CCDD     		ble	.L37
 970              	.LBE9:
 250:ciphers/pyjamask.c ****   }
 251:ciphers/pyjamask.c ****   start = get_cycle_count();
 971              		.loc 1 251 3 is_stmt 1 view .LVU313
 972              		.loc 1 251 11 is_stmt 0 view .LVU314
 973 0086 FFF7FEFF 		bl	get_cycle_count
 974              	.LVL104:
 975 008a 0546     		mov	r5, r0
 976              	.LVL105:
 252:ciphers/pyjamask.c ****   AddRoundKey__V32(round__,key__[14],ciphertext__);
 977              		.loc 1 252 3 is_stmt 1 view .LVU315
 978 008c 4A46     		mov	r2, r9
 979 008e 06F1E001 		add	r1, r6, #224
 980 0092 02A8     		add	r0, sp, #8
 981              	.LVL106:
 982              		.loc 1 252 3 is_stmt 0 view .LVU316
 983 0094 FFF7FEFF 		bl	AddRoundKey__V32
 984              	.LVL107:
 253:ciphers/pyjamask.c ****   end = get_cycle_count() - start;
 985              		.loc 1 253 3 is_stmt 1 view .LVU317
 986              		.loc 1 253 9 is_stmt 0 view .LVU318
 987 0098 FFF7FEFF 		bl	get_cycle_count
 988              	.LVL108:
 989              		.loc 1 253 7 view .LVU319
 990 009c 401B     		subs	r0, r0, r5
ARM GAS  /tmp/ccBfS1LG.s 			page 23


 991              	.LVL109:
 254:ciphers/pyjamask.c ****   bench__[0] += end;
 992              		.loc 1 254 3 is_stmt 1 view .LVU320
 993              		.loc 1 254 14 is_stmt 0 view .LVU321
 994 009e 2368     		ldr	r3, [r4]
 995 00a0 0344     		add	r3, r3, r0
 996 00a2 2360     		str	r3, [r4]
 255:ciphers/pyjamask.c **** 
 256:ciphers/pyjamask.c **** }
 997              		.loc 1 256 1 view .LVU322
 998 00a4 0FB0     		add	sp, sp, #60
 999              	.LCFI17:
 1000              		.cfi_def_cfa_offset 28
 1001              		@ sp needed
 1002 00a6 BDE8F083 		pop	{r4, r5, r6, r7, r8, r9, pc}
 1003              		.loc 1 256 1 view .LVU323
 1004              		.cfi_endproc
 1005              	.LFE83:
 1007              		.section	.text.pyjamask__3,"ax",%progbits
 1008              		.align	1
 1009              		.global	pyjamask__3
 1010              		.syntax unified
 1011              		.thumb
 1012              		.thumb_func
 1013              		.fpu softvfp
 1015              	pyjamask__3:
 1016              	.LVL110:
 1017              	.LFB84:
 257:ciphers/pyjamask.c **** 
 258:ciphers/pyjamask.c **** void pyjamask__3 (/*inputs*/ DATATYPE plaintext__[4],DATATYPE key__[15][4], DATATYPE bench__[4], /*
 1018              		.loc 1 258 136 is_stmt 1 view -0
 1019              		.cfi_startproc
 1020              		@ args = 0, pretend = 0, frame = 48
 1021              		@ frame_needed = 0, uses_anonymous_args = 0
 1022              		.loc 1 258 136 is_stmt 0 view .LVU325
 1023 0000 2DE9F043 		push	{r4, r5, r6, r7, r8, r9, lr}
 1024              	.LCFI18:
 1025              		.cfi_def_cfa_offset 28
 1026              		.cfi_offset 4, -28
 1027              		.cfi_offset 5, -24
 1028              		.cfi_offset 6, -20
 1029              		.cfi_offset 7, -16
 1030              		.cfi_offset 8, -12
 1031              		.cfi_offset 9, -8
 1032              		.cfi_offset 14, -4
 1033 0004 8FB0     		sub	sp, sp, #60
 1034              	.LCFI19:
 1035              		.cfi_def_cfa_offset 88
 1036 0006 0E46     		mov	r6, r1
 1037 0008 1446     		mov	r4, r2
 1038 000a 9946     		mov	r9, r3
 259:ciphers/pyjamask.c **** 
 260:ciphers/pyjamask.c ****   // Variables declaration
 261:ciphers/pyjamask.c ****   DATATYPE _tmp11_[4];
 1039              		.loc 1 261 3 is_stmt 1 view .LVU326
 262:ciphers/pyjamask.c ****   DATATYPE _tmp12_[4];
 1040              		.loc 1 262 3 view .LVU327
ARM GAS  /tmp/ccBfS1LG.s 			page 24


 263:ciphers/pyjamask.c ****   DATATYPE round__[4];
 1041              		.loc 1 263 3 view .LVU328
 264:ciphers/pyjamask.c **** 
 265:ciphers/pyjamask.c ****   // Variables for benchmarking
 266:ciphers/pyjamask.c ****   uint32_t start,end;
 1042              		.loc 1 266 3 view .LVU329
 267:ciphers/pyjamask.c **** 
 268:ciphers/pyjamask.c ****   // Instructions (body)
 269:ciphers/pyjamask.c ****   round__[0] = plaintext__[0];
 1043              		.loc 1 269 3 view .LVU330
 1044              		.loc 1 269 27 is_stmt 0 view .LVU331
 1045 000c 0368     		ldr	r3, [r0]
 1046              	.LVL111:
 1047              		.loc 1 269 14 view .LVU332
 1048 000e 0293     		str	r3, [sp, #8]
 270:ciphers/pyjamask.c ****   round__[1] = plaintext__[1];
 1049              		.loc 1 270 3 is_stmt 1 view .LVU333
 1050              		.loc 1 270 14 is_stmt 0 view .LVU334
 1051 0010 4368     		ldr	r3, [r0, #4]
 1052 0012 0393     		str	r3, [sp, #12]
 271:ciphers/pyjamask.c ****   round__[2] = plaintext__[2];
 1053              		.loc 1 271 3 is_stmt 1 view .LVU335
 1054              		.loc 1 271 14 is_stmt 0 view .LVU336
 1055 0014 8368     		ldr	r3, [r0, #8]
 1056 0016 0493     		str	r3, [sp, #16]
 272:ciphers/pyjamask.c ****   round__[3] = plaintext__[3];
 1057              		.loc 1 272 3 is_stmt 1 view .LVU337
 1058              		.loc 1 272 14 is_stmt 0 view .LVU338
 1059 0018 C368     		ldr	r3, [r0, #12]
 1060 001a 0593     		str	r3, [sp, #20]
 273:ciphers/pyjamask.c ****   for (int i__ = 0; i__ <= 13; i__++) {
 1061              		.loc 1 273 3 is_stmt 1 view .LVU339
 1062              	.LBB10:
 1063              		.loc 1 273 8 view .LVU340
 1064              	.LVL112:
 1065              		.loc 1 273 12 is_stmt 0 view .LVU341
 1066 001c 0025     		movs	r5, #0
 1067              		.loc 1 273 3 view .LVU342
 1068 001e 30E0     		b	.L40
 1069              	.LVL113:
 1070              	.L41:
 274:ciphers/pyjamask.c ****     start = get_cycle_count();
 1071              		.loc 1 274 5 is_stmt 1 discriminator 3 view .LVU343
 1072              		.loc 1 274 13 is_stmt 0 discriminator 3 view .LVU344
 1073 0020 FFF7FEFF 		bl	get_cycle_count
 1074              	.LVL114:
 1075 0024 8046     		mov	r8, r0
 1076              	.LVL115:
 275:ciphers/pyjamask.c ****     AddRoundKey__V32(round__,key__[i__],_tmp11_);
 1077              		.loc 1 275 5 is_stmt 1 discriminator 3 view .LVU345
 1078 0026 0AAA     		add	r2, sp, #40
 1079 0028 06EB0511 		add	r1, r6, r5, lsl #4
 1080 002c 02A8     		add	r0, sp, #8
 1081              	.LVL116:
 1082              		.loc 1 275 5 is_stmt 0 discriminator 3 view .LVU346
 1083 002e FFF7FEFF 		bl	AddRoundKey__V32
 1084              	.LVL117:
ARM GAS  /tmp/ccBfS1LG.s 			page 25


 276:ciphers/pyjamask.c ****     end = get_cycle_count() - start;
 1085              		.loc 1 276 5 is_stmt 1 discriminator 3 view .LVU347
 1086              		.loc 1 276 11 is_stmt 0 discriminator 3 view .LVU348
 1087 0032 FFF7FEFF 		bl	get_cycle_count
 1088              	.LVL118:
 1089              		.loc 1 276 9 discriminator 3 view .LVU349
 1090 0036 A0EB0800 		sub	r0, r0, r8
 1091              	.LVL119:
 277:ciphers/pyjamask.c ****     bench__[0] += end;
 1092              		.loc 1 277 5 is_stmt 1 discriminator 3 view .LVU350
 1093              		.loc 1 277 16 is_stmt 0 discriminator 3 view .LVU351
 1094 003a 2368     		ldr	r3, [r4]
 1095 003c 0344     		add	r3, r3, r0
 1096 003e 2360     		str	r3, [r4]
 278:ciphers/pyjamask.c ****     start = get_cycle_count();
 1097              		.loc 1 278 5 is_stmt 1 discriminator 3 view .LVU352
 1098              		.loc 1 278 13 is_stmt 0 discriminator 3 view .LVU353
 1099 0040 FFF7FEFF 		bl	get_cycle_count
 1100              	.LVL120:
 1101              		.loc 1 278 13 discriminator 3 view .LVU354
 1102 0044 8046     		mov	r8, r0
 1103              	.LVL121:
 279:ciphers/pyjamask.c ****     SubBytes__V32(_tmp11_[0],_tmp11_[1],_tmp11_[2],_tmp11_[3],_tmp12_);
 1104              		.loc 1 279 5 is_stmt 1 discriminator 3 view .LVU355
 1105 0046 06AF     		add	r7, sp, #24
 1106 0048 0097     		str	r7, [sp]
 1107 004a 0D9B     		ldr	r3, [sp, #52]
 1108 004c 0C9A     		ldr	r2, [sp, #48]
 1109 004e 0B99     		ldr	r1, [sp, #44]
 1110 0050 0A98     		ldr	r0, [sp, #40]
 1111              	.LVL122:
 1112              		.loc 1 279 5 is_stmt 0 discriminator 3 view .LVU356
 1113 0052 FFF7FEFF 		bl	SubBytes__V32
 1114              	.LVL123:
 280:ciphers/pyjamask.c ****     end = get_cycle_count() - start;
 1115              		.loc 1 280 5 is_stmt 1 discriminator 3 view .LVU357
 1116              		.loc 1 280 11 is_stmt 0 discriminator 3 view .LVU358
 1117 0056 FFF7FEFF 		bl	get_cycle_count
 1118              	.LVL124:
 1119              		.loc 1 280 9 discriminator 3 view .LVU359
 1120 005a A0EB0800 		sub	r0, r0, r8
 1121              	.LVL125:
 281:ciphers/pyjamask.c ****     bench__[1] += end;
 1122              		.loc 1 281 5 is_stmt 1 discriminator 3 view .LVU360
 1123              		.loc 1 281 16 is_stmt 0 discriminator 3 view .LVU361
 1124 005e 6368     		ldr	r3, [r4, #4]
 1125 0060 0344     		add	r3, r3, r0
 1126 0062 6360     		str	r3, [r4, #4]
 282:ciphers/pyjamask.c ****     start = get_cycle_count();
 1127              		.loc 1 282 5 is_stmt 1 discriminator 3 view .LVU362
 1128              		.loc 1 282 13 is_stmt 0 discriminator 3 view .LVU363
 1129 0064 FFF7FEFF 		bl	get_cycle_count
 1130              	.LVL126:
 1131              		.loc 1 282 13 discriminator 3 view .LVU364
 1132 0068 8046     		mov	r8, r0
 1133              	.LVL127:
 283:ciphers/pyjamask.c ****     MixRows__V32(_tmp12_, round__);
ARM GAS  /tmp/ccBfS1LG.s 			page 26


 1134              		.loc 1 283 5 is_stmt 1 discriminator 3 view .LVU365
 1135 006a 02A9     		add	r1, sp, #8
 1136 006c 3846     		mov	r0, r7
 1137              	.LVL128:
 1138              		.loc 1 283 5 is_stmt 0 discriminator 3 view .LVU366
 1139 006e FFF7FEFF 		bl	MixRows__V32
 1140              	.LVL129:
 284:ciphers/pyjamask.c ****     end = get_cycle_count() - start;
 1141              		.loc 1 284 5 is_stmt 1 discriminator 3 view .LVU367
 1142              		.loc 1 284 11 is_stmt 0 discriminator 3 view .LVU368
 1143 0072 FFF7FEFF 		bl	get_cycle_count
 1144              	.LVL130:
 1145              		.loc 1 284 9 discriminator 3 view .LVU369
 1146 0076 A0EB0800 		sub	r0, r0, r8
 1147              	.LVL131:
 285:ciphers/pyjamask.c ****     bench__[2] += end;
 1148              		.loc 1 285 5 is_stmt 1 discriminator 3 view .LVU370
 1149              		.loc 1 285 16 is_stmt 0 discriminator 3 view .LVU371
 1150 007a A368     		ldr	r3, [r4, #8]
 1151 007c 1844     		add	r0, r0, r3
 1152              	.LVL132:
 1153              		.loc 1 285 16 discriminator 3 view .LVU372
 1154 007e A060     		str	r0, [r4, #8]
 273:ciphers/pyjamask.c ****     start = get_cycle_count();
 1155              		.loc 1 273 32 is_stmt 1 discriminator 3 view .LVU373
 273:ciphers/pyjamask.c ****     start = get_cycle_count();
 1156              		.loc 1 273 35 is_stmt 0 discriminator 3 view .LVU374
 1157 0080 0135     		adds	r5, r5, #1
 1158              	.LVL133:
 1159              	.L40:
 273:ciphers/pyjamask.c ****     start = get_cycle_count();
 1160              		.loc 1 273 21 is_stmt 1 discriminator 1 view .LVU375
 273:ciphers/pyjamask.c ****     start = get_cycle_count();
 1161              		.loc 1 273 3 is_stmt 0 discriminator 1 view .LVU376
 1162 0082 0D2D     		cmp	r5, #13
 1163 0084 CCDD     		ble	.L41
 1164              	.LBE10:
 286:ciphers/pyjamask.c ****   }
 287:ciphers/pyjamask.c ****   start = get_cycle_count();
 1165              		.loc 1 287 3 is_stmt 1 view .LVU377
 1166              		.loc 1 287 11 is_stmt 0 view .LVU378
 1167 0086 FFF7FEFF 		bl	get_cycle_count
 1168              	.LVL134:
 1169 008a 0546     		mov	r5, r0
 1170              	.LVL135:
 288:ciphers/pyjamask.c ****   AddRoundKey__V32(round__,key__[14],ciphertext__);
 1171              		.loc 1 288 3 is_stmt 1 view .LVU379
 1172 008c 4A46     		mov	r2, r9
 1173 008e 06F1E001 		add	r1, r6, #224
 1174 0092 02A8     		add	r0, sp, #8
 1175              	.LVL136:
 1176              		.loc 1 288 3 is_stmt 0 view .LVU380
 1177 0094 FFF7FEFF 		bl	AddRoundKey__V32
 1178              	.LVL137:
 289:ciphers/pyjamask.c ****   end = get_cycle_count() - start;
 1179              		.loc 1 289 3 is_stmt 1 view .LVU381
 1180              		.loc 1 289 9 is_stmt 0 view .LVU382
ARM GAS  /tmp/ccBfS1LG.s 			page 27


 1181 0098 FFF7FEFF 		bl	get_cycle_count
 1182              	.LVL138:
 1183              		.loc 1 289 7 view .LVU383
 1184 009c 401B     		subs	r0, r0, r5
 1185              	.LVL139:
 290:ciphers/pyjamask.c ****   bench__[0] += end;
 1186              		.loc 1 290 3 is_stmt 1 view .LVU384
 1187              		.loc 1 290 14 is_stmt 0 view .LVU385
 1188 009e 2368     		ldr	r3, [r4]
 1189 00a0 0344     		add	r3, r3, r0
 1190 00a2 2360     		str	r3, [r4]
 291:ciphers/pyjamask.c **** 
 292:ciphers/pyjamask.c **** }
 1191              		.loc 1 292 1 view .LVU386
 1192 00a4 0FB0     		add	sp, sp, #60
 1193              	.LCFI20:
 1194              		.cfi_def_cfa_offset 28
 1195              		@ sp needed
 1196 00a6 BDE8F083 		pop	{r4, r5, r6, r7, r8, r9, pc}
 1197              		.loc 1 292 1 view .LVU387
 1198              		.cfi_endproc
 1199              	.LFE84:
 1201              		.section	.text.pyjamask__4,"ax",%progbits
 1202              		.align	1
 1203              		.global	pyjamask__4
 1204              		.syntax unified
 1205              		.thumb
 1206              		.thumb_func
 1207              		.fpu softvfp
 1209              	pyjamask__4:
 1210              	.LVL140:
 1211              	.LFB85:
 293:ciphers/pyjamask.c **** 
 294:ciphers/pyjamask.c **** void pyjamask__4 (/*inputs*/ DATATYPE plaintext__[4],DATATYPE key__[15][4], DATATYPE bench__[4], /*
 1212              		.loc 1 294 136 is_stmt 1 view -0
 1213              		.cfi_startproc
 1214              		@ args = 0, pretend = 0, frame = 48
 1215              		@ frame_needed = 0, uses_anonymous_args = 0
 1216              		.loc 1 294 136 is_stmt 0 view .LVU389
 1217 0000 2DE9F043 		push	{r4, r5, r6, r7, r8, r9, lr}
 1218              	.LCFI21:
 1219              		.cfi_def_cfa_offset 28
 1220              		.cfi_offset 4, -28
 1221              		.cfi_offset 5, -24
 1222              		.cfi_offset 6, -20
 1223              		.cfi_offset 7, -16
 1224              		.cfi_offset 8, -12
 1225              		.cfi_offset 9, -8
 1226              		.cfi_offset 14, -4
 1227 0004 8FB0     		sub	sp, sp, #60
 1228              	.LCFI22:
 1229              		.cfi_def_cfa_offset 88
 1230 0006 0E46     		mov	r6, r1
 1231 0008 1446     		mov	r4, r2
 1232 000a 9946     		mov	r9, r3
 295:ciphers/pyjamask.c **** 
 296:ciphers/pyjamask.c ****   // Variables declaration
ARM GAS  /tmp/ccBfS1LG.s 			page 28


 297:ciphers/pyjamask.c ****   DATATYPE _tmp11_[4];
 1233              		.loc 1 297 3 is_stmt 1 view .LVU390
 298:ciphers/pyjamask.c ****   DATATYPE _tmp12_[4];
 1234              		.loc 1 298 3 view .LVU391
 299:ciphers/pyjamask.c ****   DATATYPE round__[4];
 1235              		.loc 1 299 3 view .LVU392
 300:ciphers/pyjamask.c **** 
 301:ciphers/pyjamask.c ****   // Variables for benchmarking
 302:ciphers/pyjamask.c ****   uint32_t start,end;
 1236              		.loc 1 302 3 view .LVU393
 303:ciphers/pyjamask.c **** 
 304:ciphers/pyjamask.c ****   // Instructions (body)
 305:ciphers/pyjamask.c ****   round__[0] = plaintext__[0];
 1237              		.loc 1 305 3 view .LVU394
 1238              		.loc 1 305 27 is_stmt 0 view .LVU395
 1239 000c 0368     		ldr	r3, [r0]
 1240              	.LVL141:
 1241              		.loc 1 305 14 view .LVU396
 1242 000e 0293     		str	r3, [sp, #8]
 306:ciphers/pyjamask.c ****   round__[1] = plaintext__[1];
 1243              		.loc 1 306 3 is_stmt 1 view .LVU397
 1244              		.loc 1 306 14 is_stmt 0 view .LVU398
 1245 0010 4368     		ldr	r3, [r0, #4]
 1246 0012 0393     		str	r3, [sp, #12]
 307:ciphers/pyjamask.c ****   round__[2] = plaintext__[2];
 1247              		.loc 1 307 3 is_stmt 1 view .LVU399
 1248              		.loc 1 307 14 is_stmt 0 view .LVU400
 1249 0014 8368     		ldr	r3, [r0, #8]
 1250 0016 0493     		str	r3, [sp, #16]
 308:ciphers/pyjamask.c ****   round__[3] = plaintext__[3];
 1251              		.loc 1 308 3 is_stmt 1 view .LVU401
 1252              		.loc 1 308 14 is_stmt 0 view .LVU402
 1253 0018 C368     		ldr	r3, [r0, #12]
 1254 001a 0593     		str	r3, [sp, #20]
 309:ciphers/pyjamask.c ****   for (int i__ = 0; i__ <= 13; i__++) {
 1255              		.loc 1 309 3 is_stmt 1 view .LVU403
 1256              	.LBB11:
 1257              		.loc 1 309 8 view .LVU404
 1258              	.LVL142:
 1259              		.loc 1 309 12 is_stmt 0 view .LVU405
 1260 001c 0025     		movs	r5, #0
 1261              		.loc 1 309 3 view .LVU406
 1262 001e 31E0     		b	.L44
 1263              	.LVL143:
 1264              	.L45:
 310:ciphers/pyjamask.c ****     start = get_cycle_count();
 1265              		.loc 1 310 5 is_stmt 1 discriminator 3 view .LVU407
 1266              		.loc 1 310 13 is_stmt 0 discriminator 3 view .LVU408
 1267 0020 FFF7FEFF 		bl	get_cycle_count
 1268              	.LVL144:
 1269 0024 8046     		mov	r8, r0
 1270              	.LVL145:
 311:ciphers/pyjamask.c ****     AddRoundKey__V32(round__,key__[i__],_tmp11_);
 1271              		.loc 1 311 5 is_stmt 1 discriminator 3 view .LVU409
 1272 0026 0AAA     		add	r2, sp, #40
 1273 0028 06EB0511 		add	r1, r6, r5, lsl #4
 1274 002c 02A8     		add	r0, sp, #8
ARM GAS  /tmp/ccBfS1LG.s 			page 29


 1275              	.LVL146:
 1276              		.loc 1 311 5 is_stmt 0 discriminator 3 view .LVU410
 1277 002e FFF7FEFF 		bl	AddRoundKey__V32
 1278              	.LVL147:
 312:ciphers/pyjamask.c ****     end = get_cycle_count() - start;
 1279              		.loc 1 312 5 is_stmt 1 discriminator 3 view .LVU411
 1280              		.loc 1 312 11 is_stmt 0 discriminator 3 view .LVU412
 1281 0032 FFF7FEFF 		bl	get_cycle_count
 1282              	.LVL148:
 1283              		.loc 1 312 9 discriminator 3 view .LVU413
 1284 0036 A0EB0800 		sub	r0, r0, r8
 1285              	.LVL149:
 313:ciphers/pyjamask.c ****     bench__[0] += end;
 1286              		.loc 1 313 5 is_stmt 1 discriminator 3 view .LVU414
 1287              		.loc 1 313 16 is_stmt 0 discriminator 3 view .LVU415
 1288 003a 2368     		ldr	r3, [r4]
 1289 003c 0344     		add	r3, r3, r0
 1290 003e 2360     		str	r3, [r4]
 314:ciphers/pyjamask.c ****     start = get_cycle_count();
 1291              		.loc 1 314 5 is_stmt 1 discriminator 3 view .LVU416
 1292              		.loc 1 314 13 is_stmt 0 discriminator 3 view .LVU417
 1293 0040 FFF7FEFF 		bl	get_cycle_count
 1294              	.LVL150:
 1295              		.loc 1 314 13 discriminator 3 view .LVU418
 1296 0044 8046     		mov	r8, r0
 1297              	.LVL151:
 315:ciphers/pyjamask.c ****     SubBytes__V32(_tmp11_[0],_tmp11_[1],_tmp11_[2],_tmp11_[3],_tmp12_);
 1298              		.loc 1 315 5 is_stmt 1 discriminator 3 view .LVU419
 1299 0046 06AF     		add	r7, sp, #24
 1300 0048 0097     		str	r7, [sp]
 1301 004a 0D9B     		ldr	r3, [sp, #52]
 1302 004c 0C9A     		ldr	r2, [sp, #48]
 1303 004e 0B99     		ldr	r1, [sp, #44]
 1304 0050 0A98     		ldr	r0, [sp, #40]
 1305              	.LVL152:
 1306              		.loc 1 315 5 is_stmt 0 discriminator 3 view .LVU420
 1307 0052 FFF7FEFF 		bl	SubBytes__V32
 1308              	.LVL153:
 316:ciphers/pyjamask.c ****     end = get_cycle_count() - start;
 1309              		.loc 1 316 5 is_stmt 1 discriminator 3 view .LVU421
 1310              		.loc 1 316 11 is_stmt 0 discriminator 3 view .LVU422
 1311 0056 FFF7FEFF 		bl	get_cycle_count
 1312              	.LVL154:
 1313              		.loc 1 316 9 discriminator 3 view .LVU423
 1314 005a A0EB0800 		sub	r0, r0, r8
 1315              	.LVL155:
 317:ciphers/pyjamask.c ****     bench__[1] += end;
 1316              		.loc 1 317 5 is_stmt 1 discriminator 3 view .LVU424
 1317              		.loc 1 317 16 is_stmt 0 discriminator 3 view .LVU425
 1318 005e 6368     		ldr	r3, [r4, #4]
 1319 0060 0344     		add	r3, r3, r0
 1320 0062 6360     		str	r3, [r4, #4]
 318:ciphers/pyjamask.c ****     start = get_cycle_count();
 1321              		.loc 1 318 5 is_stmt 1 discriminator 3 view .LVU426
 1322              		.loc 1 318 13 is_stmt 0 discriminator 3 view .LVU427
 1323 0064 FFF7FEFF 		bl	get_cycle_count
 1324              	.LVL156:
ARM GAS  /tmp/ccBfS1LG.s 			page 30


 1325              		.loc 1 318 13 discriminator 3 view .LVU428
 1326 0068 8046     		mov	r8, r0
 1327              	.LVL157:
 319:ciphers/pyjamask.c ****     MixRows__V32_4(_tmp12_, bench__, round__);
 1328              		.loc 1 319 5 is_stmt 1 discriminator 3 view .LVU429
 1329 006a 02AA     		add	r2, sp, #8
 1330 006c 2146     		mov	r1, r4
 1331 006e 3846     		mov	r0, r7
 1332              	.LVL158:
 1333              		.loc 1 319 5 is_stmt 0 discriminator 3 view .LVU430
 1334 0070 FFF7FEFF 		bl	MixRows__V32_4
 1335              	.LVL159:
 320:ciphers/pyjamask.c ****     end = get_cycle_count() - start;
 1336              		.loc 1 320 5 is_stmt 1 discriminator 3 view .LVU431
 1337              		.loc 1 320 11 is_stmt 0 discriminator 3 view .LVU432
 1338 0074 FFF7FEFF 		bl	get_cycle_count
 1339              	.LVL160:
 1340              		.loc 1 320 9 discriminator 3 view .LVU433
 1341 0078 A0EB0800 		sub	r0, r0, r8
 1342              	.LVL161:
 321:ciphers/pyjamask.c ****     bench__[2] += end;
 1343              		.loc 1 321 5 is_stmt 1 discriminator 3 view .LVU434
 1344              		.loc 1 321 16 is_stmt 0 discriminator 3 view .LVU435
 1345 007c A368     		ldr	r3, [r4, #8]
 1346 007e 1844     		add	r0, r0, r3
 1347              	.LVL162:
 1348              		.loc 1 321 16 discriminator 3 view .LVU436
 1349 0080 A060     		str	r0, [r4, #8]
 309:ciphers/pyjamask.c ****     start = get_cycle_count();
 1350              		.loc 1 309 32 is_stmt 1 discriminator 3 view .LVU437
 309:ciphers/pyjamask.c ****     start = get_cycle_count();
 1351              		.loc 1 309 35 is_stmt 0 discriminator 3 view .LVU438
 1352 0082 0135     		adds	r5, r5, #1
 1353              	.LVL163:
 1354              	.L44:
 309:ciphers/pyjamask.c ****     start = get_cycle_count();
 1355              		.loc 1 309 21 is_stmt 1 discriminator 1 view .LVU439
 309:ciphers/pyjamask.c ****     start = get_cycle_count();
 1356              		.loc 1 309 3 is_stmt 0 discriminator 1 view .LVU440
 1357 0084 0D2D     		cmp	r5, #13
 1358 0086 CBDD     		ble	.L45
 1359              	.LBE11:
 322:ciphers/pyjamask.c ****   }
 323:ciphers/pyjamask.c ****   start = get_cycle_count();
 1360              		.loc 1 323 3 is_stmt 1 view .LVU441
 1361              		.loc 1 323 11 is_stmt 0 view .LVU442
 1362 0088 FFF7FEFF 		bl	get_cycle_count
 1363              	.LVL164:
 1364 008c 0546     		mov	r5, r0
 1365              	.LVL165:
 324:ciphers/pyjamask.c ****   AddRoundKey__V32(round__,key__[14], ciphertext__);
 1366              		.loc 1 324 3 is_stmt 1 view .LVU443
 1367 008e 4A46     		mov	r2, r9
 1368 0090 06F1E001 		add	r1, r6, #224
 1369 0094 02A8     		add	r0, sp, #8
 1370              	.LVL166:
 1371              		.loc 1 324 3 is_stmt 0 view .LVU444
ARM GAS  /tmp/ccBfS1LG.s 			page 31


 1372 0096 FFF7FEFF 		bl	AddRoundKey__V32
 1373              	.LVL167:
 325:ciphers/pyjamask.c ****   end = get_cycle_count() - start;
 1374              		.loc 1 325 3 is_stmt 1 view .LVU445
 1375              		.loc 1 325 9 is_stmt 0 view .LVU446
 1376 009a FFF7FEFF 		bl	get_cycle_count
 1377              	.LVL168:
 1378              		.loc 1 325 7 view .LVU447
 1379 009e 401B     		subs	r0, r0, r5
 1380              	.LVL169:
 326:ciphers/pyjamask.c ****   bench__[0] += end;
 1381              		.loc 1 326 3 is_stmt 1 view .LVU448
 1382              		.loc 1 326 14 is_stmt 0 view .LVU449
 1383 00a0 2368     		ldr	r3, [r4]
 1384 00a2 0344     		add	r3, r3, r0
 1385 00a4 2360     		str	r3, [r4]
 327:ciphers/pyjamask.c **** 
 328:ciphers/pyjamask.c **** }
 1386              		.loc 1 328 1 view .LVU450
 1387 00a6 0FB0     		add	sp, sp, #60
 1388              	.LCFI23:
 1389              		.cfi_def_cfa_offset 28
 1390              		@ sp needed
 1391 00a8 BDE8F083 		pop	{r4, r5, r6, r7, r8, r9, pc}
 1392              		.loc 1 328 1 view .LVU451
 1393              		.cfi_endproc
 1394              	.LFE85:
 1396              		.section	.text.bench_speed1,"ax",%progbits
 1397              		.align	1
 1398              		.global	bench_speed1
 1399              		.syntax unified
 1400              		.thumb
 1401              		.thumb_func
 1402              		.fpu softvfp
 1404              	bench_speed1:
 1405              	.LFB86:
 329:ciphers/pyjamask.c **** 
 330:ciphers/pyjamask.c **** /* Additional functions */
 331:ciphers/pyjamask.c **** uint32_t bench_speed1() {
 1406              		.loc 1 331 25 is_stmt 1 view -0
 1407              		.cfi_startproc
 1408              		@ args = 0, pretend = 0, frame = 288
 1409              		@ frame_needed = 0, uses_anonymous_args = 0
 1410 0000 10B5     		push	{r4, lr}
 1411              	.LCFI24:
 1412              		.cfi_def_cfa_offset 8
 1413              		.cfi_offset 4, -8
 1414              		.cfi_offset 14, -4
 1415 0002 C8B0     		sub	sp, sp, #288
 1416              	.LCFI25:
 1417              		.cfi_def_cfa_offset 296
 332:ciphers/pyjamask.c ****   /* inputs */
 333:ciphers/pyjamask.c ****   DATATYPE plaintext__[4] = { 0 };
 1418              		.loc 1 333 3 view .LVU453
 1419              		.loc 1 333 12 is_stmt 0 view .LVU454
 1420 0004 0024     		movs	r4, #0
 1421 0006 4494     		str	r4, [sp, #272]
ARM GAS  /tmp/ccBfS1LG.s 			page 32


 1422 0008 4594     		str	r4, [sp, #276]
 1423 000a 4694     		str	r4, [sp, #280]
 1424 000c 4794     		str	r4, [sp, #284]
 334:ciphers/pyjamask.c ****   DATATYPE key__[15][4] = { 0 };
 1425              		.loc 1 334 3 is_stmt 1 view .LVU455
 1426              		.loc 1 334 12 is_stmt 0 view .LVU456
 1427 000e F022     		movs	r2, #240
 1428 0010 2146     		mov	r1, r4
 1429 0012 08A8     		add	r0, sp, #32
 1430 0014 FFF7FEFF 		bl	memset
 1431              	.LVL170:
 335:ciphers/pyjamask.c ****   /* benchmark*/
 336:ciphers/pyjamask.c ****   DATATYPE bench__[4] = {0,0,0,0};
 1432              		.loc 1 336 3 is_stmt 1 view .LVU457
 1433              		.loc 1 336 12 is_stmt 0 view .LVU458
 1434 0018 0494     		str	r4, [sp, #16]
 1435 001a 0594     		str	r4, [sp, #20]
 1436 001c 0694     		str	r4, [sp, #24]
 1437 001e 0794     		str	r4, [sp, #28]
 337:ciphers/pyjamask.c ****   /* outputs */
 338:ciphers/pyjamask.c ****   DATATYPE ciphertext__[4] = { 0 };
 1438              		.loc 1 338 3 is_stmt 1 view .LVU459
 1439              		.loc 1 338 12 is_stmt 0 view .LVU460
 1440 0020 0094     		str	r4, [sp]
 1441 0022 0194     		str	r4, [sp, #4]
 1442 0024 0294     		str	r4, [sp, #8]
 1443 0026 0394     		str	r4, [sp, #12]
 339:ciphers/pyjamask.c ****   /* fun call */
 340:ciphers/pyjamask.c ****   pyjamask__1(plaintext__, key__, bench__,ciphertext__);
 1444              		.loc 1 340 3 is_stmt 1 view .LVU461
 1445 0028 6B46     		mov	r3, sp
 1446 002a 04AA     		add	r2, sp, #16
 1447 002c 08A9     		add	r1, sp, #32
 1448 002e 44A8     		add	r0, sp, #272
 1449 0030 FFF7FEFF 		bl	pyjamask__1
 1450              	.LVL171:
 341:ciphers/pyjamask.c **** 
 342:ciphers/pyjamask.c ****   /* Returning the number of encrypted bytes */
 343:ciphers/pyjamask.c ****   return bench__[0];
 1451              		.loc 1 343 3 view .LVU462
 344:ciphers/pyjamask.c **** }
 1452              		.loc 1 344 1 is_stmt 0 view .LVU463
 1453 0034 0498     		ldr	r0, [sp, #16]
 1454 0036 48B0     		add	sp, sp, #288
 1455              	.LCFI26:
 1456              		.cfi_def_cfa_offset 8
 1457              		@ sp needed
 1458 0038 10BD     		pop	{r4, pc}
 1459              		.cfi_endproc
 1460              	.LFE86:
 1462              		.section	.text.bench_speed2,"ax",%progbits
 1463              		.align	1
 1464              		.global	bench_speed2
 1465              		.syntax unified
 1466              		.thumb
 1467              		.thumb_func
 1468              		.fpu softvfp
ARM GAS  /tmp/ccBfS1LG.s 			page 33


 1470              	bench_speed2:
 1471              	.LFB87:
 345:ciphers/pyjamask.c **** 
 346:ciphers/pyjamask.c **** uint32_t bench_speed2() {
 1472              		.loc 1 346 25 is_stmt 1 view -0
 1473              		.cfi_startproc
 1474              		@ args = 0, pretend = 0, frame = 288
 1475              		@ frame_needed = 0, uses_anonymous_args = 0
 1476 0000 10B5     		push	{r4, lr}
 1477              	.LCFI27:
 1478              		.cfi_def_cfa_offset 8
 1479              		.cfi_offset 4, -8
 1480              		.cfi_offset 14, -4
 1481 0002 C8B0     		sub	sp, sp, #288
 1482              	.LCFI28:
 1483              		.cfi_def_cfa_offset 296
 347:ciphers/pyjamask.c ****   /* inputs */
 348:ciphers/pyjamask.c ****   DATATYPE plaintext__[4] = { 0 };
 1484              		.loc 1 348 3 view .LVU465
 1485              		.loc 1 348 12 is_stmt 0 view .LVU466
 1486 0004 0024     		movs	r4, #0
 1487 0006 4494     		str	r4, [sp, #272]
 1488 0008 4594     		str	r4, [sp, #276]
 1489 000a 4694     		str	r4, [sp, #280]
 1490 000c 4794     		str	r4, [sp, #284]
 349:ciphers/pyjamask.c ****   DATATYPE key__[15][4] = { 0 };
 1491              		.loc 1 349 3 is_stmt 1 view .LVU467
 1492              		.loc 1 349 12 is_stmt 0 view .LVU468
 1493 000e F022     		movs	r2, #240
 1494 0010 2146     		mov	r1, r4
 1495 0012 08A8     		add	r0, sp, #32
 1496 0014 FFF7FEFF 		bl	memset
 1497              	.LVL172:
 350:ciphers/pyjamask.c ****   /* benchmark*/
 351:ciphers/pyjamask.c ****   DATATYPE bench__[4] = {0,0,0,0};
 1498              		.loc 1 351 3 is_stmt 1 view .LVU469
 1499              		.loc 1 351 12 is_stmt 0 view .LVU470
 1500 0018 0494     		str	r4, [sp, #16]
 1501 001a 0594     		str	r4, [sp, #20]
 1502 001c 0694     		str	r4, [sp, #24]
 1503 001e 0794     		str	r4, [sp, #28]
 352:ciphers/pyjamask.c ****   /* outputs */
 353:ciphers/pyjamask.c ****   DATATYPE ciphertext__[4] = { 0 };
 1504              		.loc 1 353 3 is_stmt 1 view .LVU471
 1505              		.loc 1 353 12 is_stmt 0 view .LVU472
 1506 0020 0094     		str	r4, [sp]
 1507 0022 0194     		str	r4, [sp, #4]
 1508 0024 0294     		str	r4, [sp, #8]
 1509 0026 0394     		str	r4, [sp, #12]
 354:ciphers/pyjamask.c ****   /* fun call */
 355:ciphers/pyjamask.c ****   pyjamask__2(plaintext__, key__, bench__,ciphertext__);
 1510              		.loc 1 355 3 is_stmt 1 view .LVU473
 1511 0028 6B46     		mov	r3, sp
 1512 002a 04AA     		add	r2, sp, #16
 1513 002c 08A9     		add	r1, sp, #32
 1514 002e 44A8     		add	r0, sp, #272
 1515 0030 FFF7FEFF 		bl	pyjamask__2
ARM GAS  /tmp/ccBfS1LG.s 			page 34


 1516              	.LVL173:
 356:ciphers/pyjamask.c **** 
 357:ciphers/pyjamask.c ****   /* Returning the number of encrypted bytes */
 358:ciphers/pyjamask.c ****   return bench__[1];
 1517              		.loc 1 358 3 view .LVU474
 359:ciphers/pyjamask.c **** }
 1518              		.loc 1 359 1 is_stmt 0 view .LVU475
 1519 0034 0598     		ldr	r0, [sp, #20]
 1520 0036 48B0     		add	sp, sp, #288
 1521              	.LCFI29:
 1522              		.cfi_def_cfa_offset 8
 1523              		@ sp needed
 1524 0038 10BD     		pop	{r4, pc}
 1525              		.cfi_endproc
 1526              	.LFE87:
 1528              		.section	.text.bench_speed3,"ax",%progbits
 1529              		.align	1
 1530              		.global	bench_speed3
 1531              		.syntax unified
 1532              		.thumb
 1533              		.thumb_func
 1534              		.fpu softvfp
 1536              	bench_speed3:
 1537              	.LFB88:
 360:ciphers/pyjamask.c **** 
 361:ciphers/pyjamask.c **** uint32_t bench_speed3() {
 1538              		.loc 1 361 25 is_stmt 1 view -0
 1539              		.cfi_startproc
 1540              		@ args = 0, pretend = 0, frame = 288
 1541              		@ frame_needed = 0, uses_anonymous_args = 0
 1542 0000 10B5     		push	{r4, lr}
 1543              	.LCFI30:
 1544              		.cfi_def_cfa_offset 8
 1545              		.cfi_offset 4, -8
 1546              		.cfi_offset 14, -4
 1547 0002 C8B0     		sub	sp, sp, #288
 1548              	.LCFI31:
 1549              		.cfi_def_cfa_offset 296
 362:ciphers/pyjamask.c ****   /* inputs */
 363:ciphers/pyjamask.c ****   DATATYPE plaintext__[4] = { 0 };
 1550              		.loc 1 363 3 view .LVU477
 1551              		.loc 1 363 12 is_stmt 0 view .LVU478
 1552 0004 0024     		movs	r4, #0
 1553 0006 4494     		str	r4, [sp, #272]
 1554 0008 4594     		str	r4, [sp, #276]
 1555 000a 4694     		str	r4, [sp, #280]
 1556 000c 4794     		str	r4, [sp, #284]
 364:ciphers/pyjamask.c ****   DATATYPE key__[15][4] = { 0 };
 1557              		.loc 1 364 3 is_stmt 1 view .LVU479
 1558              		.loc 1 364 12 is_stmt 0 view .LVU480
 1559 000e F022     		movs	r2, #240
 1560 0010 2146     		mov	r1, r4
 1561 0012 08A8     		add	r0, sp, #32
 1562 0014 FFF7FEFF 		bl	memset
 1563              	.LVL174:
 365:ciphers/pyjamask.c ****   /* benchmark*/
 366:ciphers/pyjamask.c ****   DATATYPE bench__[4] = {0,0,0,0};
ARM GAS  /tmp/ccBfS1LG.s 			page 35


 1564              		.loc 1 366 3 is_stmt 1 view .LVU481
 1565              		.loc 1 366 12 is_stmt 0 view .LVU482
 1566 0018 0494     		str	r4, [sp, #16]
 1567 001a 0594     		str	r4, [sp, #20]
 1568 001c 0694     		str	r4, [sp, #24]
 1569 001e 0794     		str	r4, [sp, #28]
 367:ciphers/pyjamask.c ****   /* outputs */
 368:ciphers/pyjamask.c ****   DATATYPE ciphertext__[4] = { 0 };
 1570              		.loc 1 368 3 is_stmt 1 view .LVU483
 1571              		.loc 1 368 12 is_stmt 0 view .LVU484
 1572 0020 0094     		str	r4, [sp]
 1573 0022 0194     		str	r4, [sp, #4]
 1574 0024 0294     		str	r4, [sp, #8]
 1575 0026 0394     		str	r4, [sp, #12]
 369:ciphers/pyjamask.c ****   /* fun call */
 370:ciphers/pyjamask.c ****   pyjamask__3(plaintext__, key__, bench__,ciphertext__);
 1576              		.loc 1 370 3 is_stmt 1 view .LVU485
 1577 0028 6B46     		mov	r3, sp
 1578 002a 04AA     		add	r2, sp, #16
 1579 002c 08A9     		add	r1, sp, #32
 1580 002e 44A8     		add	r0, sp, #272
 1581 0030 FFF7FEFF 		bl	pyjamask__3
 1582              	.LVL175:
 371:ciphers/pyjamask.c **** 
 372:ciphers/pyjamask.c ****   /* Returning the number of encrypted bytes */
 373:ciphers/pyjamask.c ****   return bench__[2];
 1583              		.loc 1 373 3 view .LVU486
 374:ciphers/pyjamask.c **** }
 1584              		.loc 1 374 1 is_stmt 0 view .LVU487
 1585 0034 0698     		ldr	r0, [sp, #24]
 1586 0036 48B0     		add	sp, sp, #288
 1587              	.LCFI32:
 1588              		.cfi_def_cfa_offset 8
 1589              		@ sp needed
 1590 0038 10BD     		pop	{r4, pc}
 1591              		.cfi_endproc
 1592              	.LFE88:
 1594              		.section	.text.bench_speed4,"ax",%progbits
 1595              		.align	1
 1596              		.global	bench_speed4
 1597              		.syntax unified
 1598              		.thumb
 1599              		.thumb_func
 1600              		.fpu softvfp
 1602              	bench_speed4:
 1603              	.LFB89:
 375:ciphers/pyjamask.c **** 
 376:ciphers/pyjamask.c **** uint32_t bench_speed4() {
 1604              		.loc 1 376 25 is_stmt 1 view -0
 1605              		.cfi_startproc
 1606              		@ args = 0, pretend = 0, frame = 288
 1607              		@ frame_needed = 0, uses_anonymous_args = 0
 1608 0000 10B5     		push	{r4, lr}
 1609              	.LCFI33:
 1610              		.cfi_def_cfa_offset 8
 1611              		.cfi_offset 4, -8
 1612              		.cfi_offset 14, -4
ARM GAS  /tmp/ccBfS1LG.s 			page 36


 1613 0002 C8B0     		sub	sp, sp, #288
 1614              	.LCFI34:
 1615              		.cfi_def_cfa_offset 296
 377:ciphers/pyjamask.c ****   /* inputs */
 378:ciphers/pyjamask.c ****   DATATYPE plaintext__[4] = { 0 };
 1616              		.loc 1 378 3 view .LVU489
 1617              		.loc 1 378 12 is_stmt 0 view .LVU490
 1618 0004 0024     		movs	r4, #0
 1619 0006 4494     		str	r4, [sp, #272]
 1620 0008 4594     		str	r4, [sp, #276]
 1621 000a 4694     		str	r4, [sp, #280]
 1622 000c 4794     		str	r4, [sp, #284]
 379:ciphers/pyjamask.c ****   DATATYPE key__[15][4] = { 0 };
 1623              		.loc 1 379 3 is_stmt 1 view .LVU491
 1624              		.loc 1 379 12 is_stmt 0 view .LVU492
 1625 000e F022     		movs	r2, #240
 1626 0010 2146     		mov	r1, r4
 1627 0012 08A8     		add	r0, sp, #32
 1628 0014 FFF7FEFF 		bl	memset
 1629              	.LVL176:
 380:ciphers/pyjamask.c ****   /* benchmark*/
 381:ciphers/pyjamask.c ****   DATATYPE bench__[4] = {0,0,0,0};
 1630              		.loc 1 381 3 is_stmt 1 view .LVU493
 1631              		.loc 1 381 12 is_stmt 0 view .LVU494
 1632 0018 0494     		str	r4, [sp, #16]
 1633 001a 0594     		str	r4, [sp, #20]
 1634 001c 0694     		str	r4, [sp, #24]
 1635 001e 0794     		str	r4, [sp, #28]
 382:ciphers/pyjamask.c ****   /* outputs */
 383:ciphers/pyjamask.c ****   DATATYPE ciphertext__[4] = { 0 };
 1636              		.loc 1 383 3 is_stmt 1 view .LVU495
 1637              		.loc 1 383 12 is_stmt 0 view .LVU496
 1638 0020 0094     		str	r4, [sp]
 1639 0022 0194     		str	r4, [sp, #4]
 1640 0024 0294     		str	r4, [sp, #8]
 1641 0026 0394     		str	r4, [sp, #12]
 384:ciphers/pyjamask.c ****   /* fun call */
 385:ciphers/pyjamask.c ****   pyjamask__4(plaintext__, key__, bench__,ciphertext__);
 1642              		.loc 1 385 3 is_stmt 1 view .LVU497
 1643 0028 6B46     		mov	r3, sp
 1644 002a 04AA     		add	r2, sp, #16
 1645 002c 08A9     		add	r1, sp, #32
 1646 002e 44A8     		add	r0, sp, #272
 1647 0030 FFF7FEFF 		bl	pyjamask__4
 1648              	.LVL177:
 386:ciphers/pyjamask.c **** 
 387:ciphers/pyjamask.c ****   /* Returning the number of encrypted bytes */
 388:ciphers/pyjamask.c ****   return bench__[3];
 1649              		.loc 1 388 3 view .LVU498
 389:ciphers/pyjamask.c ****  }
 1650              		.loc 1 389 2 is_stmt 0 view .LVU499
 1651 0034 0798     		ldr	r0, [sp, #28]
 1652 0036 48B0     		add	sp, sp, #288
 1653              	.LCFI35:
 1654              		.cfi_def_cfa_offset 8
 1655              		@ sp needed
 1656 0038 10BD     		pop	{r4, pc}
ARM GAS  /tmp/ccBfS1LG.s 			page 37


 1657              		.cfi_endproc
 1658              	.LFE89:
 1660              		.section	.bss.dwt_started.0,"aw",%nobits
 1661              		.align	2
 1662              		.set	.LANCHOR0,. + 0
 1665              	dwt_started.0:
 1666 0000 00000000 		.space	4
 1667              		.text
 1668              	.Letext0:
 1669              		.file 2 "/usr/lib/gcc/arm-none-eabi/10.3.1/include/stdint.h"
 1670              		.file 3 "Drivers/CMSIS/Include/core_cm3.h"
 1671              		.file 4 "<built-in>"
ARM GAS  /tmp/ccBfS1LG.s 			page 38

